
hello_mpsimple.elf:     formato del fichero elf32-or1k


Desensamblado de la sección .vectors:

00000000 <_or1k_reset-0x100>:
	...

00000100 <_or1k_reset>:
     100:	18 00 00 00 	l.movhi r0,0x0
     104:	18 20 00 00 	l.movhi r1,0x0
     108:	18 40 00 00 	l.movhi r2,0x0
     10c:	18 60 00 00 	l.movhi r3,0x0
     110:	18 80 00 00 	l.movhi r4,0x0
     114:	18 a0 00 00 	l.movhi r5,0x0
     118:	18 c0 00 00 	l.movhi r6,0x0
     11c:	18 e0 00 00 	l.movhi r7,0x0
     120:	19 00 00 00 	l.movhi r8,0x0
     124:	19 20 00 00 	l.movhi r9,0x0
     128:	19 40 00 00 	l.movhi r10,0x0
     12c:	19 60 00 00 	l.movhi r11,0x0
     130:	19 80 00 00 	l.movhi r12,0x0
     134:	19 a0 00 00 	l.movhi r13,0x0
     138:	19 c0 00 00 	l.movhi r14,0x0
     13c:	19 e0 00 00 	l.movhi r15,0x0
     140:	1a 00 00 00 	l.movhi r16,0x0
     144:	1a 20 00 00 	l.movhi r17,0x0
     148:	1a 40 00 00 	l.movhi r18,0x0
     14c:	1a 60 00 00 	l.movhi r19,0x0
     150:	1a 80 00 00 	l.movhi r20,0x0
     154:	1a a0 00 00 	l.movhi r21,0x0
     158:	1a c0 00 00 	l.movhi r22,0x0
     15c:	1a e0 00 00 	l.movhi r23,0x0
     160:	1b 00 00 00 	l.movhi r24,0x0
     164:	1b 20 00 00 	l.movhi r25,0x0
     168:	1b 40 00 00 	l.movhi r26,0x0
     16c:	1b 60 00 00 	l.movhi r27,0x0
     170:	1b 80 00 00 	l.movhi r28,0x0
     174:	1b a0 00 00 	l.movhi r29,0x0
     178:	1b c0 00 00 	l.movhi r30,0x0
     17c:	1b e0 00 00 	l.movhi r31,0x0
     180:	a8 20 00 01 	l.ori r1,r0,0x1
     184:	c0 00 08 11 	l.mtspr r0,r1,0x11
     188:	c1 40 00 00 	l.mtspr r0,r0,0x5000
     18c:	18 80 00 00 	l.movhi r4,0x0
     190:	a8 84 20 30 	l.ori r4,r4,0x2030
     194:	44 00 20 00 	l.jr r4
     198:	15 00 00 00 	l.nop 0x0
	...
     200:	d4 00 08 04 	l.sw 4(r0),r1
     204:	18 20 00 01 	l.movhi r1,0x1
     208:	a8 21 5e c4 	l.ori r1,r1,0x5ec4
     20c:	84 21 00 00 	l.lwz r1,0(r1)
     210:	e4 01 00 00 	l.sfeq r1,r0
     214:	0c 00 00 06 	l.bnf 22c <_or1k_reset+0x12c>
     218:	15 00 00 00 	l.nop 0x0
     21c:	18 20 00 01 	l.movhi r1,0x1
     220:	a8 21 5e c8 	l.ori r1,r1,0x5ec8
     224:	00 00 00 04 	l.j 234 <_or1k_reset+0x134>
     228:	84 21 00 00 	l.lwz r1,0(r1)
     22c:	84 20 00 04 	l.lwz r1,4(r0)
     230:	9c 21 ff 80 	l.addi r1,r1,-128
     234:	9c 21 ff 78 	l.addi r1,r1,-136
     238:	d4 01 18 0c 	l.sw 12(r1),r3
     23c:	84 60 00 04 	l.lwz r3,4(r0)
     240:	d4 01 18 04 	l.sw 4(r1),r3
     244:	d4 01 20 10 	l.sw 16(r1),r4
     248:	18 60 00 01 	l.movhi r3,0x1
     24c:	a8 63 5e c4 	l.ori r3,r3,0x5ec4
     250:	84 83 00 00 	l.lwz r4,0(r3)
     254:	9c 84 00 01 	l.addi r4,r4,1
     258:	d4 03 20 00 	l.sw 0(r3),r4
     25c:	b4 60 00 10 	l.mfspr r3,r0,0x10
     260:	00 00 39 a0 	l.j e8e0 <_or1k_exception_handler>
     264:	b4 80 00 20 	l.mfspr r4,r0,0x20
	...
     300:	d4 00 08 04 	l.sw 4(r0),r1
     304:	18 20 00 01 	l.movhi r1,0x1
     308:	a8 21 5e c4 	l.ori r1,r1,0x5ec4
     30c:	84 21 00 00 	l.lwz r1,0(r1)
     310:	e4 01 00 00 	l.sfeq r1,r0
     314:	0c 00 00 06 	l.bnf 32c <_or1k_reset+0x22c>
     318:	15 00 00 00 	l.nop 0x0
     31c:	18 20 00 01 	l.movhi r1,0x1
     320:	a8 21 5e c8 	l.ori r1,r1,0x5ec8
     324:	00 00 00 04 	l.j 334 <_or1k_reset+0x234>
     328:	84 21 00 00 	l.lwz r1,0(r1)
     32c:	84 20 00 04 	l.lwz r1,4(r0)
     330:	9c 21 ff 80 	l.addi r1,r1,-128
     334:	9c 21 ff 78 	l.addi r1,r1,-136
     338:	d4 01 18 0c 	l.sw 12(r1),r3
     33c:	84 60 00 04 	l.lwz r3,4(r0)
     340:	d4 01 18 04 	l.sw 4(r1),r3
     344:	d4 01 20 10 	l.sw 16(r1),r4
     348:	18 60 00 01 	l.movhi r3,0x1
     34c:	a8 63 5e c4 	l.ori r3,r3,0x5ec4
     350:	84 83 00 00 	l.lwz r4,0(r3)
     354:	9c 84 00 01 	l.addi r4,r4,1
     358:	d4 03 20 00 	l.sw 0(r3),r4
     35c:	b4 60 00 10 	l.mfspr r3,r0,0x10
     360:	00 00 39 60 	l.j e8e0 <_or1k_exception_handler>
     364:	b4 80 00 20 	l.mfspr r4,r0,0x20
	...
     400:	d4 00 08 04 	l.sw 4(r0),r1
     404:	18 20 00 01 	l.movhi r1,0x1
     408:	a8 21 5e c4 	l.ori r1,r1,0x5ec4
     40c:	84 21 00 00 	l.lwz r1,0(r1)
     410:	e4 01 00 00 	l.sfeq r1,r0
     414:	0c 00 00 06 	l.bnf 42c <_or1k_reset+0x32c>
     418:	15 00 00 00 	l.nop 0x0
     41c:	18 20 00 01 	l.movhi r1,0x1
     420:	a8 21 5e c8 	l.ori r1,r1,0x5ec8
     424:	00 00 00 04 	l.j 434 <_or1k_reset+0x334>
     428:	84 21 00 00 	l.lwz r1,0(r1)
     42c:	84 20 00 04 	l.lwz r1,4(r0)
     430:	9c 21 ff 80 	l.addi r1,r1,-128
     434:	9c 21 ff 78 	l.addi r1,r1,-136
     438:	d4 01 18 0c 	l.sw 12(r1),r3
     43c:	84 60 00 04 	l.lwz r3,4(r0)
     440:	d4 01 18 04 	l.sw 4(r1),r3
     444:	d4 01 20 10 	l.sw 16(r1),r4
     448:	18 60 00 01 	l.movhi r3,0x1
     44c:	a8 63 5e c4 	l.ori r3,r3,0x5ec4
     450:	84 83 00 00 	l.lwz r4,0(r3)
     454:	9c 84 00 01 	l.addi r4,r4,1
     458:	d4 03 20 00 	l.sw 0(r3),r4
     45c:	b4 60 00 10 	l.mfspr r3,r0,0x10
     460:	00 00 39 20 	l.j e8e0 <_or1k_exception_handler>
     464:	b4 80 00 20 	l.mfspr r4,r0,0x20
	...
     500:	d4 00 08 04 	l.sw 4(r0),r1
     504:	18 20 00 01 	l.movhi r1,0x1
     508:	a8 21 5e c4 	l.ori r1,r1,0x5ec4
     50c:	84 21 00 00 	l.lwz r1,0(r1)
     510:	e4 01 00 00 	l.sfeq r1,r0
     514:	0c 00 00 06 	l.bnf 52c <_or1k_reset+0x42c>
     518:	15 00 00 00 	l.nop 0x0
     51c:	18 20 00 01 	l.movhi r1,0x1
     520:	a8 21 5e c8 	l.ori r1,r1,0x5ec8
     524:	00 00 00 04 	l.j 534 <_or1k_reset+0x434>
     528:	84 21 00 00 	l.lwz r1,0(r1)
     52c:	84 20 00 04 	l.lwz r1,4(r0)
     530:	9c 21 ff 80 	l.addi r1,r1,-128
     534:	9c 21 ff 78 	l.addi r1,r1,-136
     538:	d4 01 18 0c 	l.sw 12(r1),r3
     53c:	84 60 00 04 	l.lwz r3,4(r0)
     540:	d4 01 18 04 	l.sw 4(r1),r3
     544:	d4 01 20 10 	l.sw 16(r1),r4
     548:	18 60 00 01 	l.movhi r3,0x1
     54c:	a8 63 5e c4 	l.ori r3,r3,0x5ec4
     550:	84 83 00 00 	l.lwz r4,0(r3)
     554:	9c 84 00 01 	l.addi r4,r4,1
     558:	d4 03 20 00 	l.sw 0(r3),r4
     55c:	b4 60 00 10 	l.mfspr r3,r0,0x10
     560:	00 00 38 e0 	l.j e8e0 <_or1k_exception_handler>
     564:	b4 80 00 20 	l.mfspr r4,r0,0x20
	...
     600:	d4 00 08 04 	l.sw 4(r0),r1
     604:	18 20 00 01 	l.movhi r1,0x1
     608:	a8 21 5e c4 	l.ori r1,r1,0x5ec4
     60c:	84 21 00 00 	l.lwz r1,0(r1)
     610:	e4 01 00 00 	l.sfeq r1,r0
     614:	0c 00 00 06 	l.bnf 62c <_or1k_reset+0x52c>
     618:	15 00 00 00 	l.nop 0x0
     61c:	18 20 00 01 	l.movhi r1,0x1
     620:	a8 21 5e c8 	l.ori r1,r1,0x5ec8
     624:	00 00 00 04 	l.j 634 <_or1k_reset+0x534>
     628:	84 21 00 00 	l.lwz r1,0(r1)
     62c:	84 20 00 04 	l.lwz r1,4(r0)
     630:	9c 21 ff 80 	l.addi r1,r1,-128
     634:	9c 21 ff 78 	l.addi r1,r1,-136
     638:	d4 01 18 0c 	l.sw 12(r1),r3
     63c:	84 60 00 04 	l.lwz r3,4(r0)
     640:	d4 01 18 04 	l.sw 4(r1),r3
     644:	d4 01 20 10 	l.sw 16(r1),r4
     648:	18 60 00 01 	l.movhi r3,0x1
     64c:	a8 63 5e c4 	l.ori r3,r3,0x5ec4
     650:	84 83 00 00 	l.lwz r4,0(r3)
     654:	9c 84 00 01 	l.addi r4,r4,1
     658:	d4 03 20 00 	l.sw 0(r3),r4
     65c:	b4 60 00 10 	l.mfspr r3,r0,0x10
     660:	00 00 38 a0 	l.j e8e0 <_or1k_exception_handler>
     664:	b4 80 00 20 	l.mfspr r4,r0,0x20
	...
     700:	d4 00 08 04 	l.sw 4(r0),r1
     704:	18 20 00 01 	l.movhi r1,0x1
     708:	a8 21 5e c4 	l.ori r1,r1,0x5ec4
     70c:	84 21 00 00 	l.lwz r1,0(r1)
     710:	e4 01 00 00 	l.sfeq r1,r0
     714:	0c 00 00 06 	l.bnf 72c <_or1k_reset+0x62c>
     718:	15 00 00 00 	l.nop 0x0
     71c:	18 20 00 01 	l.movhi r1,0x1
     720:	a8 21 5e c8 	l.ori r1,r1,0x5ec8
     724:	00 00 00 04 	l.j 734 <_or1k_reset+0x634>
     728:	84 21 00 00 	l.lwz r1,0(r1)
     72c:	84 20 00 04 	l.lwz r1,4(r0)
     730:	9c 21 ff 80 	l.addi r1,r1,-128
     734:	9c 21 ff 78 	l.addi r1,r1,-136
     738:	d4 01 18 0c 	l.sw 12(r1),r3
     73c:	84 60 00 04 	l.lwz r3,4(r0)
     740:	d4 01 18 04 	l.sw 4(r1),r3
     744:	d4 01 20 10 	l.sw 16(r1),r4
     748:	18 60 00 01 	l.movhi r3,0x1
     74c:	a8 63 5e c4 	l.ori r3,r3,0x5ec4
     750:	84 83 00 00 	l.lwz r4,0(r3)
     754:	9c 84 00 01 	l.addi r4,r4,1
     758:	d4 03 20 00 	l.sw 0(r3),r4
     75c:	b4 60 00 10 	l.mfspr r3,r0,0x10
     760:	00 00 38 60 	l.j e8e0 <_or1k_exception_handler>
     764:	b4 80 00 20 	l.mfspr r4,r0,0x20
	...
     800:	d4 00 08 04 	l.sw 4(r0),r1
     804:	18 20 00 01 	l.movhi r1,0x1
     808:	a8 21 5e c4 	l.ori r1,r1,0x5ec4
     80c:	84 21 00 00 	l.lwz r1,0(r1)
     810:	e4 01 00 00 	l.sfeq r1,r0
     814:	0c 00 00 06 	l.bnf 82c <_or1k_reset+0x72c>
     818:	15 00 00 00 	l.nop 0x0
     81c:	18 20 00 01 	l.movhi r1,0x1
     820:	a8 21 5e c8 	l.ori r1,r1,0x5ec8
     824:	00 00 00 04 	l.j 834 <_or1k_reset+0x734>
     828:	84 21 00 00 	l.lwz r1,0(r1)
     82c:	84 20 00 04 	l.lwz r1,4(r0)
     830:	9c 21 ff 80 	l.addi r1,r1,-128
     834:	9c 21 ff 78 	l.addi r1,r1,-136
     838:	d4 01 18 0c 	l.sw 12(r1),r3
     83c:	84 60 00 04 	l.lwz r3,4(r0)
     840:	d4 01 18 04 	l.sw 4(r1),r3
     844:	d4 01 20 10 	l.sw 16(r1),r4
     848:	18 60 00 01 	l.movhi r3,0x1
     84c:	a8 63 5e c4 	l.ori r3,r3,0x5ec4
     850:	84 83 00 00 	l.lwz r4,0(r3)
     854:	9c 84 00 01 	l.addi r4,r4,1
     858:	d4 03 20 00 	l.sw 0(r3),r4
     85c:	b4 60 00 10 	l.mfspr r3,r0,0x10
     860:	00 00 38 20 	l.j e8e0 <_or1k_exception_handler>
     864:	b4 80 00 20 	l.mfspr r4,r0,0x20
	...
     900:	d4 00 08 04 	l.sw 4(r0),r1
     904:	18 20 00 01 	l.movhi r1,0x1
     908:	a8 21 5e c4 	l.ori r1,r1,0x5ec4
     90c:	84 21 00 00 	l.lwz r1,0(r1)
     910:	e4 01 00 00 	l.sfeq r1,r0
     914:	0c 00 00 06 	l.bnf 92c <_or1k_reset+0x82c>
     918:	15 00 00 00 	l.nop 0x0
     91c:	18 20 00 01 	l.movhi r1,0x1
     920:	a8 21 5e c8 	l.ori r1,r1,0x5ec8
     924:	00 00 00 04 	l.j 934 <_or1k_reset+0x834>
     928:	84 21 00 00 	l.lwz r1,0(r1)
     92c:	84 20 00 04 	l.lwz r1,4(r0)
     930:	9c 21 ff 80 	l.addi r1,r1,-128
     934:	9c 21 ff 78 	l.addi r1,r1,-136
     938:	d4 01 18 0c 	l.sw 12(r1),r3
     93c:	84 60 00 04 	l.lwz r3,4(r0)
     940:	d4 01 18 04 	l.sw 4(r1),r3
     944:	d4 01 20 10 	l.sw 16(r1),r4
     948:	18 60 00 01 	l.movhi r3,0x1
     94c:	a8 63 5e c4 	l.ori r3,r3,0x5ec4
     950:	84 83 00 00 	l.lwz r4,0(r3)
     954:	9c 84 00 01 	l.addi r4,r4,1
     958:	d4 03 20 00 	l.sw 0(r3),r4
     95c:	b4 60 00 10 	l.mfspr r3,r0,0x10
     960:	00 00 37 e0 	l.j e8e0 <_or1k_exception_handler>
     964:	b4 80 00 20 	l.mfspr r4,r0,0x20
	...
     a00:	d4 00 08 04 	l.sw 4(r0),r1
     a04:	18 20 00 01 	l.movhi r1,0x1
     a08:	a8 21 5e c4 	l.ori r1,r1,0x5ec4
     a0c:	84 21 00 00 	l.lwz r1,0(r1)
     a10:	e4 01 00 00 	l.sfeq r1,r0
     a14:	0c 00 00 06 	l.bnf a2c <_or1k_reset+0x92c>
     a18:	15 00 00 00 	l.nop 0x0
     a1c:	18 20 00 01 	l.movhi r1,0x1
     a20:	a8 21 5e c8 	l.ori r1,r1,0x5ec8
     a24:	00 00 00 04 	l.j a34 <_or1k_reset+0x934>
     a28:	84 21 00 00 	l.lwz r1,0(r1)
     a2c:	84 20 00 04 	l.lwz r1,4(r0)
     a30:	9c 21 ff 80 	l.addi r1,r1,-128
     a34:	9c 21 ff 78 	l.addi r1,r1,-136
     a38:	d4 01 18 0c 	l.sw 12(r1),r3
     a3c:	84 60 00 04 	l.lwz r3,4(r0)
     a40:	d4 01 18 04 	l.sw 4(r1),r3
     a44:	d4 01 20 10 	l.sw 16(r1),r4
     a48:	18 60 00 01 	l.movhi r3,0x1
     a4c:	a8 63 5e c4 	l.ori r3,r3,0x5ec4
     a50:	84 83 00 00 	l.lwz r4,0(r3)
     a54:	9c 84 00 01 	l.addi r4,r4,1
     a58:	d4 03 20 00 	l.sw 0(r3),r4
     a5c:	b4 60 00 10 	l.mfspr r3,r0,0x10
     a60:	00 00 37 a0 	l.j e8e0 <_or1k_exception_handler>
     a64:	b4 80 00 20 	l.mfspr r4,r0,0x20
	...
     b00:	d4 00 08 04 	l.sw 4(r0),r1
     b04:	18 20 00 01 	l.movhi r1,0x1
     b08:	a8 21 5e c4 	l.ori r1,r1,0x5ec4
     b0c:	84 21 00 00 	l.lwz r1,0(r1)
     b10:	e4 01 00 00 	l.sfeq r1,r0
     b14:	0c 00 00 06 	l.bnf b2c <_or1k_reset+0xa2c>
     b18:	15 00 00 00 	l.nop 0x0
     b1c:	18 20 00 01 	l.movhi r1,0x1
     b20:	a8 21 5e c8 	l.ori r1,r1,0x5ec8
     b24:	00 00 00 04 	l.j b34 <_or1k_reset+0xa34>
     b28:	84 21 00 00 	l.lwz r1,0(r1)
     b2c:	84 20 00 04 	l.lwz r1,4(r0)
     b30:	9c 21 ff 80 	l.addi r1,r1,-128
     b34:	9c 21 ff 78 	l.addi r1,r1,-136
     b38:	d4 01 18 0c 	l.sw 12(r1),r3
     b3c:	84 60 00 04 	l.lwz r3,4(r0)
     b40:	d4 01 18 04 	l.sw 4(r1),r3
     b44:	d4 01 20 10 	l.sw 16(r1),r4
     b48:	18 60 00 01 	l.movhi r3,0x1
     b4c:	a8 63 5e c4 	l.ori r3,r3,0x5ec4
     b50:	84 83 00 00 	l.lwz r4,0(r3)
     b54:	9c 84 00 01 	l.addi r4,r4,1
     b58:	d4 03 20 00 	l.sw 0(r3),r4
     b5c:	b4 60 00 10 	l.mfspr r3,r0,0x10
     b60:	00 00 37 60 	l.j e8e0 <_or1k_exception_handler>
     b64:	b4 80 00 20 	l.mfspr r4,r0,0x20
	...
     c00:	d4 00 08 04 	l.sw 4(r0),r1
     c04:	18 20 00 01 	l.movhi r1,0x1
     c08:	a8 21 5e c4 	l.ori r1,r1,0x5ec4
     c0c:	84 21 00 00 	l.lwz r1,0(r1)
     c10:	e4 01 00 00 	l.sfeq r1,r0
     c14:	0c 00 00 06 	l.bnf c2c <_or1k_reset+0xb2c>
     c18:	15 00 00 00 	l.nop 0x0
     c1c:	18 20 00 01 	l.movhi r1,0x1
     c20:	a8 21 5e c8 	l.ori r1,r1,0x5ec8
     c24:	00 00 00 04 	l.j c34 <_or1k_reset+0xb34>
     c28:	84 21 00 00 	l.lwz r1,0(r1)
     c2c:	84 20 00 04 	l.lwz r1,4(r0)
     c30:	9c 21 ff 80 	l.addi r1,r1,-128
     c34:	9c 21 ff 78 	l.addi r1,r1,-136
     c38:	d4 01 18 0c 	l.sw 12(r1),r3
     c3c:	84 60 00 04 	l.lwz r3,4(r0)
     c40:	d4 01 18 04 	l.sw 4(r1),r3
     c44:	d4 01 20 10 	l.sw 16(r1),r4
     c48:	18 60 00 01 	l.movhi r3,0x1
     c4c:	a8 63 5e c4 	l.ori r3,r3,0x5ec4
     c50:	84 83 00 00 	l.lwz r4,0(r3)
     c54:	9c 84 00 01 	l.addi r4,r4,1
     c58:	d4 03 20 00 	l.sw 0(r3),r4
     c5c:	b4 60 00 10 	l.mfspr r3,r0,0x10
     c60:	00 00 37 20 	l.j e8e0 <_or1k_exception_handler>
     c64:	b4 80 00 20 	l.mfspr r4,r0,0x20
	...
     d00:	d4 00 08 04 	l.sw 4(r0),r1
     d04:	18 20 00 01 	l.movhi r1,0x1
     d08:	a8 21 5e c4 	l.ori r1,r1,0x5ec4
     d0c:	84 21 00 00 	l.lwz r1,0(r1)
     d10:	e4 01 00 00 	l.sfeq r1,r0
     d14:	0c 00 00 06 	l.bnf d2c <_or1k_reset+0xc2c>
     d18:	15 00 00 00 	l.nop 0x0
     d1c:	18 20 00 01 	l.movhi r1,0x1
     d20:	a8 21 5e c8 	l.ori r1,r1,0x5ec8
     d24:	00 00 00 04 	l.j d34 <_or1k_reset+0xc34>
     d28:	84 21 00 00 	l.lwz r1,0(r1)
     d2c:	84 20 00 04 	l.lwz r1,4(r0)
     d30:	9c 21 ff 80 	l.addi r1,r1,-128
     d34:	9c 21 ff 78 	l.addi r1,r1,-136
     d38:	d4 01 18 0c 	l.sw 12(r1),r3
     d3c:	84 60 00 04 	l.lwz r3,4(r0)
     d40:	d4 01 18 04 	l.sw 4(r1),r3
     d44:	d4 01 20 10 	l.sw 16(r1),r4
     d48:	18 60 00 01 	l.movhi r3,0x1
     d4c:	a8 63 5e c4 	l.ori r3,r3,0x5ec4
     d50:	84 83 00 00 	l.lwz r4,0(r3)
     d54:	9c 84 00 01 	l.addi r4,r4,1
     d58:	d4 03 20 00 	l.sw 0(r3),r4
     d5c:	b4 60 00 10 	l.mfspr r3,r0,0x10
     d60:	00 00 36 e0 	l.j e8e0 <_or1k_exception_handler>
     d64:	b4 80 00 20 	l.mfspr r4,r0,0x20
	...
     e00:	d4 00 08 04 	l.sw 4(r0),r1
     e04:	18 20 00 01 	l.movhi r1,0x1
     e08:	a8 21 5e c4 	l.ori r1,r1,0x5ec4
     e0c:	84 21 00 00 	l.lwz r1,0(r1)
     e10:	e4 01 00 00 	l.sfeq r1,r0
     e14:	0c 00 00 06 	l.bnf e2c <_or1k_reset+0xd2c>
     e18:	15 00 00 00 	l.nop 0x0
     e1c:	18 20 00 01 	l.movhi r1,0x1
     e20:	a8 21 5e c8 	l.ori r1,r1,0x5ec8
     e24:	00 00 00 04 	l.j e34 <_or1k_reset+0xd34>
     e28:	84 21 00 00 	l.lwz r1,0(r1)
     e2c:	84 20 00 04 	l.lwz r1,4(r0)
     e30:	9c 21 ff 80 	l.addi r1,r1,-128
     e34:	9c 21 ff 78 	l.addi r1,r1,-136
     e38:	d4 01 18 0c 	l.sw 12(r1),r3
     e3c:	84 60 00 04 	l.lwz r3,4(r0)
     e40:	d4 01 18 04 	l.sw 4(r1),r3
     e44:	d4 01 20 10 	l.sw 16(r1),r4
     e48:	18 60 00 01 	l.movhi r3,0x1
     e4c:	a8 63 5e c4 	l.ori r3,r3,0x5ec4
     e50:	84 83 00 00 	l.lwz r4,0(r3)
     e54:	9c 84 00 01 	l.addi r4,r4,1
     e58:	d4 03 20 00 	l.sw 0(r3),r4
     e5c:	b4 60 00 10 	l.mfspr r3,r0,0x10
     e60:	00 00 36 a0 	l.j e8e0 <_or1k_exception_handler>
     e64:	b4 80 00 20 	l.mfspr r4,r0,0x20
	...
     f00:	d4 00 08 04 	l.sw 4(r0),r1
     f04:	18 20 00 01 	l.movhi r1,0x1
     f08:	a8 21 5e c4 	l.ori r1,r1,0x5ec4
     f0c:	84 21 00 00 	l.lwz r1,0(r1)
     f10:	e4 01 00 00 	l.sfeq r1,r0
     f14:	0c 00 00 06 	l.bnf f2c <_or1k_reset+0xe2c>
     f18:	15 00 00 00 	l.nop 0x0
     f1c:	18 20 00 01 	l.movhi r1,0x1
     f20:	a8 21 5e c8 	l.ori r1,r1,0x5ec8
     f24:	00 00 00 04 	l.j f34 <_or1k_reset+0xe34>
     f28:	84 21 00 00 	l.lwz r1,0(r1)
     f2c:	84 20 00 04 	l.lwz r1,4(r0)
     f30:	9c 21 ff 80 	l.addi r1,r1,-128
     f34:	9c 21 ff 78 	l.addi r1,r1,-136
     f38:	d4 01 18 0c 	l.sw 12(r1),r3
     f3c:	84 60 00 04 	l.lwz r3,4(r0)
     f40:	d4 01 18 04 	l.sw 4(r1),r3
     f44:	d4 01 20 10 	l.sw 16(r1),r4
     f48:	18 60 00 01 	l.movhi r3,0x1
     f4c:	a8 63 5e c4 	l.ori r3,r3,0x5ec4
     f50:	84 83 00 00 	l.lwz r4,0(r3)
     f54:	9c 84 00 01 	l.addi r4,r4,1
     f58:	d4 03 20 00 	l.sw 0(r3),r4
     f5c:	b4 60 00 10 	l.mfspr r3,r0,0x10
     f60:	00 00 36 60 	l.j e8e0 <_or1k_exception_handler>
     f64:	b4 80 00 20 	l.mfspr r4,r0,0x20
	...
    1000:	d4 00 08 04 	l.sw 4(r0),r1
    1004:	18 20 00 01 	l.movhi r1,0x1
    1008:	a8 21 5e c4 	l.ori r1,r1,0x5ec4
    100c:	84 21 00 00 	l.lwz r1,0(r1)
    1010:	e4 01 00 00 	l.sfeq r1,r0
    1014:	0c 00 00 06 	l.bnf 102c <_or1k_reset+0xf2c>
    1018:	15 00 00 00 	l.nop 0x0
    101c:	18 20 00 01 	l.movhi r1,0x1
    1020:	a8 21 5e c8 	l.ori r1,r1,0x5ec8
    1024:	00 00 00 04 	l.j 1034 <_or1k_reset+0xf34>
    1028:	84 21 00 00 	l.lwz r1,0(r1)
    102c:	84 20 00 04 	l.lwz r1,4(r0)
    1030:	9c 21 ff 80 	l.addi r1,r1,-128
    1034:	9c 21 ff 78 	l.addi r1,r1,-136
    1038:	d4 01 18 0c 	l.sw 12(r1),r3
    103c:	84 60 00 04 	l.lwz r3,4(r0)
    1040:	d4 01 18 04 	l.sw 4(r1),r3
    1044:	d4 01 20 10 	l.sw 16(r1),r4
    1048:	18 60 00 01 	l.movhi r3,0x1
    104c:	a8 63 5e c4 	l.ori r3,r3,0x5ec4
    1050:	84 83 00 00 	l.lwz r4,0(r3)
    1054:	9c 84 00 01 	l.addi r4,r4,1
    1058:	d4 03 20 00 	l.sw 0(r3),r4
    105c:	b4 60 00 10 	l.mfspr r3,r0,0x10
    1060:	00 00 36 20 	l.j e8e0 <_or1k_exception_handler>
    1064:	b4 80 00 20 	l.mfspr r4,r0,0x20
	...
    1100:	d4 00 08 04 	l.sw 4(r0),r1
    1104:	18 20 00 01 	l.movhi r1,0x1
    1108:	a8 21 5e c4 	l.ori r1,r1,0x5ec4
    110c:	84 21 00 00 	l.lwz r1,0(r1)
    1110:	e4 01 00 00 	l.sfeq r1,r0
    1114:	0c 00 00 06 	l.bnf 112c <_or1k_reset+0x102c>
    1118:	15 00 00 00 	l.nop 0x0
    111c:	18 20 00 01 	l.movhi r1,0x1
    1120:	a8 21 5e c8 	l.ori r1,r1,0x5ec8
    1124:	00 00 00 04 	l.j 1134 <_or1k_reset+0x1034>
    1128:	84 21 00 00 	l.lwz r1,0(r1)
    112c:	84 20 00 04 	l.lwz r1,4(r0)
    1130:	9c 21 ff 80 	l.addi r1,r1,-128
    1134:	9c 21 ff 78 	l.addi r1,r1,-136
    1138:	d4 01 18 0c 	l.sw 12(r1),r3
    113c:	84 60 00 04 	l.lwz r3,4(r0)
    1140:	d4 01 18 04 	l.sw 4(r1),r3
    1144:	d4 01 20 10 	l.sw 16(r1),r4
    1148:	18 60 00 01 	l.movhi r3,0x1
    114c:	a8 63 5e c4 	l.ori r3,r3,0x5ec4
    1150:	84 83 00 00 	l.lwz r4,0(r3)
    1154:	9c 84 00 01 	l.addi r4,r4,1
    1158:	d4 03 20 00 	l.sw 0(r3),r4
    115c:	b4 60 00 10 	l.mfspr r3,r0,0x10
    1160:	00 00 35 e0 	l.j e8e0 <_or1k_exception_handler>
    1164:	b4 80 00 20 	l.mfspr r4,r0,0x20
	...
    1200:	d4 00 08 04 	l.sw 4(r0),r1
    1204:	18 20 00 01 	l.movhi r1,0x1
    1208:	a8 21 5e c4 	l.ori r1,r1,0x5ec4
    120c:	84 21 00 00 	l.lwz r1,0(r1)
    1210:	e4 01 00 00 	l.sfeq r1,r0
    1214:	0c 00 00 06 	l.bnf 122c <_or1k_reset+0x112c>
    1218:	15 00 00 00 	l.nop 0x0
    121c:	18 20 00 01 	l.movhi r1,0x1
    1220:	a8 21 5e c8 	l.ori r1,r1,0x5ec8
    1224:	00 00 00 04 	l.j 1234 <_or1k_reset+0x1134>
    1228:	84 21 00 00 	l.lwz r1,0(r1)
    122c:	84 20 00 04 	l.lwz r1,4(r0)
    1230:	9c 21 ff 80 	l.addi r1,r1,-128
    1234:	9c 21 ff 78 	l.addi r1,r1,-136
    1238:	d4 01 18 0c 	l.sw 12(r1),r3
    123c:	84 60 00 04 	l.lwz r3,4(r0)
    1240:	d4 01 18 04 	l.sw 4(r1),r3
    1244:	d4 01 20 10 	l.sw 16(r1),r4
    1248:	18 60 00 01 	l.movhi r3,0x1
    124c:	a8 63 5e c4 	l.ori r3,r3,0x5ec4
    1250:	84 83 00 00 	l.lwz r4,0(r3)
    1254:	9c 84 00 01 	l.addi r4,r4,1
    1258:	d4 03 20 00 	l.sw 0(r3),r4
    125c:	b4 60 00 10 	l.mfspr r3,r0,0x10
    1260:	00 00 35 a0 	l.j e8e0 <_or1k_exception_handler>
    1264:	b4 80 00 20 	l.mfspr r4,r0,0x20
	...
    1300:	d4 00 08 04 	l.sw 4(r0),r1
    1304:	18 20 00 01 	l.movhi r1,0x1
    1308:	a8 21 5e c4 	l.ori r1,r1,0x5ec4
    130c:	84 21 00 00 	l.lwz r1,0(r1)
    1310:	e4 01 00 00 	l.sfeq r1,r0
    1314:	0c 00 00 06 	l.bnf 132c <_or1k_reset+0x122c>
    1318:	15 00 00 00 	l.nop 0x0
    131c:	18 20 00 01 	l.movhi r1,0x1
    1320:	a8 21 5e c8 	l.ori r1,r1,0x5ec8
    1324:	00 00 00 04 	l.j 1334 <_or1k_reset+0x1234>
    1328:	84 21 00 00 	l.lwz r1,0(r1)
    132c:	84 20 00 04 	l.lwz r1,4(r0)
    1330:	9c 21 ff 80 	l.addi r1,r1,-128
    1334:	9c 21 ff 78 	l.addi r1,r1,-136
    1338:	d4 01 18 0c 	l.sw 12(r1),r3
    133c:	84 60 00 04 	l.lwz r3,4(r0)
    1340:	d4 01 18 04 	l.sw 4(r1),r3
    1344:	d4 01 20 10 	l.sw 16(r1),r4
    1348:	18 60 00 01 	l.movhi r3,0x1
    134c:	a8 63 5e c4 	l.ori r3,r3,0x5ec4
    1350:	84 83 00 00 	l.lwz r4,0(r3)
    1354:	9c 84 00 01 	l.addi r4,r4,1
    1358:	d4 03 20 00 	l.sw 0(r3),r4
    135c:	b4 60 00 10 	l.mfspr r3,r0,0x10
    1360:	00 00 35 60 	l.j e8e0 <_or1k_exception_handler>
    1364:	b4 80 00 20 	l.mfspr r4,r0,0x20
	...
    1400:	d4 00 08 04 	l.sw 4(r0),r1
    1404:	18 20 00 01 	l.movhi r1,0x1
    1408:	a8 21 5e c4 	l.ori r1,r1,0x5ec4
    140c:	84 21 00 00 	l.lwz r1,0(r1)
    1410:	e4 01 00 00 	l.sfeq r1,r0
    1414:	0c 00 00 06 	l.bnf 142c <_or1k_reset+0x132c>
    1418:	15 00 00 00 	l.nop 0x0
    141c:	18 20 00 01 	l.movhi r1,0x1
    1420:	a8 21 5e c8 	l.ori r1,r1,0x5ec8
    1424:	00 00 00 04 	l.j 1434 <_or1k_reset+0x1334>
    1428:	84 21 00 00 	l.lwz r1,0(r1)
    142c:	84 20 00 04 	l.lwz r1,4(r0)
    1430:	9c 21 ff 80 	l.addi r1,r1,-128
    1434:	9c 21 ff 78 	l.addi r1,r1,-136
    1438:	d4 01 18 0c 	l.sw 12(r1),r3
    143c:	84 60 00 04 	l.lwz r3,4(r0)
    1440:	d4 01 18 04 	l.sw 4(r1),r3
    1444:	d4 01 20 10 	l.sw 16(r1),r4
    1448:	18 60 00 01 	l.movhi r3,0x1
    144c:	a8 63 5e c4 	l.ori r3,r3,0x5ec4
    1450:	84 83 00 00 	l.lwz r4,0(r3)
    1454:	9c 84 00 01 	l.addi r4,r4,1
    1458:	d4 03 20 00 	l.sw 0(r3),r4
    145c:	b4 60 00 10 	l.mfspr r3,r0,0x10
    1460:	00 00 35 20 	l.j e8e0 <_or1k_exception_handler>
    1464:	b4 80 00 20 	l.mfspr r4,r0,0x20
	...
    1500:	d4 00 08 04 	l.sw 4(r0),r1
    1504:	18 20 00 01 	l.movhi r1,0x1
    1508:	a8 21 5e c4 	l.ori r1,r1,0x5ec4
    150c:	84 21 00 00 	l.lwz r1,0(r1)
    1510:	e4 01 00 00 	l.sfeq r1,r0
    1514:	0c 00 00 06 	l.bnf 152c <_or1k_reset+0x142c>
    1518:	15 00 00 00 	l.nop 0x0
    151c:	18 20 00 01 	l.movhi r1,0x1
    1520:	a8 21 5e c8 	l.ori r1,r1,0x5ec8
    1524:	00 00 00 04 	l.j 1534 <_or1k_reset+0x1434>
    1528:	84 21 00 00 	l.lwz r1,0(r1)
    152c:	84 20 00 04 	l.lwz r1,4(r0)
    1530:	9c 21 ff 80 	l.addi r1,r1,-128
    1534:	9c 21 ff 78 	l.addi r1,r1,-136
    1538:	d4 01 18 0c 	l.sw 12(r1),r3
    153c:	84 60 00 04 	l.lwz r3,4(r0)
    1540:	d4 01 18 04 	l.sw 4(r1),r3
    1544:	d4 01 20 10 	l.sw 16(r1),r4
    1548:	18 60 00 01 	l.movhi r3,0x1
    154c:	a8 63 5e c4 	l.ori r3,r3,0x5ec4
    1550:	84 83 00 00 	l.lwz r4,0(r3)
    1554:	9c 84 00 01 	l.addi r4,r4,1
    1558:	d4 03 20 00 	l.sw 0(r3),r4
    155c:	b4 60 00 10 	l.mfspr r3,r0,0x10
    1560:	00 00 34 e0 	l.j e8e0 <_or1k_exception_handler>
    1564:	b4 80 00 20 	l.mfspr r4,r0,0x20
	...
    1600:	d4 00 08 04 	l.sw 4(r0),r1
    1604:	18 20 00 01 	l.movhi r1,0x1
    1608:	a8 21 5e c4 	l.ori r1,r1,0x5ec4
    160c:	84 21 00 00 	l.lwz r1,0(r1)
    1610:	e4 01 00 00 	l.sfeq r1,r0
    1614:	0c 00 00 06 	l.bnf 162c <_or1k_reset+0x152c>
    1618:	15 00 00 00 	l.nop 0x0
    161c:	18 20 00 01 	l.movhi r1,0x1
    1620:	a8 21 5e c8 	l.ori r1,r1,0x5ec8
    1624:	00 00 00 04 	l.j 1634 <_or1k_reset+0x1534>
    1628:	84 21 00 00 	l.lwz r1,0(r1)
    162c:	84 20 00 04 	l.lwz r1,4(r0)
    1630:	9c 21 ff 80 	l.addi r1,r1,-128
    1634:	9c 21 ff 78 	l.addi r1,r1,-136
    1638:	d4 01 18 0c 	l.sw 12(r1),r3
    163c:	84 60 00 04 	l.lwz r3,4(r0)
    1640:	d4 01 18 04 	l.sw 4(r1),r3
    1644:	d4 01 20 10 	l.sw 16(r1),r4
    1648:	18 60 00 01 	l.movhi r3,0x1
    164c:	a8 63 5e c4 	l.ori r3,r3,0x5ec4
    1650:	84 83 00 00 	l.lwz r4,0(r3)
    1654:	9c 84 00 01 	l.addi r4,r4,1
    1658:	d4 03 20 00 	l.sw 0(r3),r4
    165c:	b4 60 00 10 	l.mfspr r3,r0,0x10
    1660:	00 00 34 a0 	l.j e8e0 <_or1k_exception_handler>
    1664:	b4 80 00 20 	l.mfspr r4,r0,0x20
	...
    1700:	d4 00 08 04 	l.sw 4(r0),r1
    1704:	18 20 00 01 	l.movhi r1,0x1
    1708:	a8 21 5e c4 	l.ori r1,r1,0x5ec4
    170c:	84 21 00 00 	l.lwz r1,0(r1)
    1710:	e4 01 00 00 	l.sfeq r1,r0
    1714:	0c 00 00 06 	l.bnf 172c <_or1k_reset+0x162c>
    1718:	15 00 00 00 	l.nop 0x0
    171c:	18 20 00 01 	l.movhi r1,0x1
    1720:	a8 21 5e c8 	l.ori r1,r1,0x5ec8
    1724:	00 00 00 04 	l.j 1734 <_or1k_reset+0x1634>
    1728:	84 21 00 00 	l.lwz r1,0(r1)
    172c:	84 20 00 04 	l.lwz r1,4(r0)
    1730:	9c 21 ff 80 	l.addi r1,r1,-128
    1734:	9c 21 ff 78 	l.addi r1,r1,-136
    1738:	d4 01 18 0c 	l.sw 12(r1),r3
    173c:	84 60 00 04 	l.lwz r3,4(r0)
    1740:	d4 01 18 04 	l.sw 4(r1),r3
    1744:	d4 01 20 10 	l.sw 16(r1),r4
    1748:	18 60 00 01 	l.movhi r3,0x1
    174c:	a8 63 5e c4 	l.ori r3,r3,0x5ec4
    1750:	84 83 00 00 	l.lwz r4,0(r3)
    1754:	9c 84 00 01 	l.addi r4,r4,1
    1758:	d4 03 20 00 	l.sw 0(r3),r4
    175c:	b4 60 00 10 	l.mfspr r3,r0,0x10
    1760:	00 00 34 60 	l.j e8e0 <_or1k_exception_handler>
    1764:	b4 80 00 20 	l.mfspr r4,r0,0x20
	...
    1800:	d4 00 08 04 	l.sw 4(r0),r1
    1804:	18 20 00 01 	l.movhi r1,0x1
    1808:	a8 21 5e c4 	l.ori r1,r1,0x5ec4
    180c:	84 21 00 00 	l.lwz r1,0(r1)
    1810:	e4 01 00 00 	l.sfeq r1,r0
    1814:	0c 00 00 06 	l.bnf 182c <_or1k_reset+0x172c>
    1818:	15 00 00 00 	l.nop 0x0
    181c:	18 20 00 01 	l.movhi r1,0x1
    1820:	a8 21 5e c8 	l.ori r1,r1,0x5ec8
    1824:	00 00 00 04 	l.j 1834 <_or1k_reset+0x1734>
    1828:	84 21 00 00 	l.lwz r1,0(r1)
    182c:	84 20 00 04 	l.lwz r1,4(r0)
    1830:	9c 21 ff 80 	l.addi r1,r1,-128
    1834:	9c 21 ff 78 	l.addi r1,r1,-136
    1838:	d4 01 18 0c 	l.sw 12(r1),r3
    183c:	84 60 00 04 	l.lwz r3,4(r0)
    1840:	d4 01 18 04 	l.sw 4(r1),r3
    1844:	d4 01 20 10 	l.sw 16(r1),r4
    1848:	18 60 00 01 	l.movhi r3,0x1
    184c:	a8 63 5e c4 	l.ori r3,r3,0x5ec4
    1850:	84 83 00 00 	l.lwz r4,0(r3)
    1854:	9c 84 00 01 	l.addi r4,r4,1
    1858:	d4 03 20 00 	l.sw 0(r3),r4
    185c:	b4 60 00 10 	l.mfspr r3,r0,0x10
    1860:	00 00 34 20 	l.j e8e0 <_or1k_exception_handler>
    1864:	b4 80 00 20 	l.mfspr r4,r0,0x20
	...
    1900:	d4 00 08 04 	l.sw 4(r0),r1
    1904:	18 20 00 01 	l.movhi r1,0x1
    1908:	a8 21 5e c4 	l.ori r1,r1,0x5ec4
    190c:	84 21 00 00 	l.lwz r1,0(r1)
    1910:	e4 01 00 00 	l.sfeq r1,r0
    1914:	0c 00 00 06 	l.bnf 192c <_or1k_reset+0x182c>
    1918:	15 00 00 00 	l.nop 0x0
    191c:	18 20 00 01 	l.movhi r1,0x1
    1920:	a8 21 5e c8 	l.ori r1,r1,0x5ec8
    1924:	00 00 00 04 	l.j 1934 <_or1k_reset+0x1834>
    1928:	84 21 00 00 	l.lwz r1,0(r1)
    192c:	84 20 00 04 	l.lwz r1,4(r0)
    1930:	9c 21 ff 80 	l.addi r1,r1,-128
    1934:	9c 21 ff 78 	l.addi r1,r1,-136
    1938:	d4 01 18 0c 	l.sw 12(r1),r3
    193c:	84 60 00 04 	l.lwz r3,4(r0)
    1940:	d4 01 18 04 	l.sw 4(r1),r3
    1944:	d4 01 20 10 	l.sw 16(r1),r4
    1948:	18 60 00 01 	l.movhi r3,0x1
    194c:	a8 63 5e c4 	l.ori r3,r3,0x5ec4
    1950:	84 83 00 00 	l.lwz r4,0(r3)
    1954:	9c 84 00 01 	l.addi r4,r4,1
    1958:	d4 03 20 00 	l.sw 0(r3),r4
    195c:	b4 60 00 10 	l.mfspr r3,r0,0x10
    1960:	00 00 33 e0 	l.j e8e0 <_or1k_exception_handler>
    1964:	b4 80 00 20 	l.mfspr r4,r0,0x20
	...
    1a00:	d4 00 08 04 	l.sw 4(r0),r1
    1a04:	18 20 00 01 	l.movhi r1,0x1
    1a08:	a8 21 5e c4 	l.ori r1,r1,0x5ec4
    1a0c:	84 21 00 00 	l.lwz r1,0(r1)
    1a10:	e4 01 00 00 	l.sfeq r1,r0
    1a14:	0c 00 00 06 	l.bnf 1a2c <_or1k_reset+0x192c>
    1a18:	15 00 00 00 	l.nop 0x0
    1a1c:	18 20 00 01 	l.movhi r1,0x1
    1a20:	a8 21 5e c8 	l.ori r1,r1,0x5ec8
    1a24:	00 00 00 04 	l.j 1a34 <_or1k_reset+0x1934>
    1a28:	84 21 00 00 	l.lwz r1,0(r1)
    1a2c:	84 20 00 04 	l.lwz r1,4(r0)
    1a30:	9c 21 ff 80 	l.addi r1,r1,-128
    1a34:	9c 21 ff 78 	l.addi r1,r1,-136
    1a38:	d4 01 18 0c 	l.sw 12(r1),r3
    1a3c:	84 60 00 04 	l.lwz r3,4(r0)
    1a40:	d4 01 18 04 	l.sw 4(r1),r3
    1a44:	d4 01 20 10 	l.sw 16(r1),r4
    1a48:	18 60 00 01 	l.movhi r3,0x1
    1a4c:	a8 63 5e c4 	l.ori r3,r3,0x5ec4
    1a50:	84 83 00 00 	l.lwz r4,0(r3)
    1a54:	9c 84 00 01 	l.addi r4,r4,1
    1a58:	d4 03 20 00 	l.sw 0(r3),r4
    1a5c:	b4 60 00 10 	l.mfspr r3,r0,0x10
    1a60:	00 00 33 a0 	l.j e8e0 <_or1k_exception_handler>
    1a64:	b4 80 00 20 	l.mfspr r4,r0,0x20
	...
    1b00:	d4 00 08 04 	l.sw 4(r0),r1
    1b04:	18 20 00 01 	l.movhi r1,0x1
    1b08:	a8 21 5e c4 	l.ori r1,r1,0x5ec4
    1b0c:	84 21 00 00 	l.lwz r1,0(r1)
    1b10:	e4 01 00 00 	l.sfeq r1,r0
    1b14:	0c 00 00 06 	l.bnf 1b2c <_or1k_reset+0x1a2c>
    1b18:	15 00 00 00 	l.nop 0x0
    1b1c:	18 20 00 01 	l.movhi r1,0x1
    1b20:	a8 21 5e c8 	l.ori r1,r1,0x5ec8
    1b24:	00 00 00 04 	l.j 1b34 <_or1k_reset+0x1a34>
    1b28:	84 21 00 00 	l.lwz r1,0(r1)
    1b2c:	84 20 00 04 	l.lwz r1,4(r0)
    1b30:	9c 21 ff 80 	l.addi r1,r1,-128
    1b34:	9c 21 ff 78 	l.addi r1,r1,-136
    1b38:	d4 01 18 0c 	l.sw 12(r1),r3
    1b3c:	84 60 00 04 	l.lwz r3,4(r0)
    1b40:	d4 01 18 04 	l.sw 4(r1),r3
    1b44:	d4 01 20 10 	l.sw 16(r1),r4
    1b48:	18 60 00 01 	l.movhi r3,0x1
    1b4c:	a8 63 5e c4 	l.ori r3,r3,0x5ec4
    1b50:	84 83 00 00 	l.lwz r4,0(r3)
    1b54:	9c 84 00 01 	l.addi r4,r4,1
    1b58:	d4 03 20 00 	l.sw 0(r3),r4
    1b5c:	b4 60 00 10 	l.mfspr r3,r0,0x10
    1b60:	00 00 33 60 	l.j e8e0 <_or1k_exception_handler>
    1b64:	b4 80 00 20 	l.mfspr r4,r0,0x20
	...
    1c00:	d4 00 08 04 	l.sw 4(r0),r1
    1c04:	18 20 00 01 	l.movhi r1,0x1
    1c08:	a8 21 5e c4 	l.ori r1,r1,0x5ec4
    1c0c:	84 21 00 00 	l.lwz r1,0(r1)
    1c10:	e4 01 00 00 	l.sfeq r1,r0
    1c14:	0c 00 00 06 	l.bnf 1c2c <_or1k_reset+0x1b2c>
    1c18:	15 00 00 00 	l.nop 0x0
    1c1c:	18 20 00 01 	l.movhi r1,0x1
    1c20:	a8 21 5e c8 	l.ori r1,r1,0x5ec8
    1c24:	00 00 00 04 	l.j 1c34 <_or1k_reset+0x1b34>
    1c28:	84 21 00 00 	l.lwz r1,0(r1)
    1c2c:	84 20 00 04 	l.lwz r1,4(r0)
    1c30:	9c 21 ff 80 	l.addi r1,r1,-128
    1c34:	9c 21 ff 78 	l.addi r1,r1,-136
    1c38:	d4 01 18 0c 	l.sw 12(r1),r3
    1c3c:	84 60 00 04 	l.lwz r3,4(r0)
    1c40:	d4 01 18 04 	l.sw 4(r1),r3
    1c44:	d4 01 20 10 	l.sw 16(r1),r4
    1c48:	18 60 00 01 	l.movhi r3,0x1
    1c4c:	a8 63 5e c4 	l.ori r3,r3,0x5ec4
    1c50:	84 83 00 00 	l.lwz r4,0(r3)
    1c54:	9c 84 00 01 	l.addi r4,r4,1
    1c58:	d4 03 20 00 	l.sw 0(r3),r4
    1c5c:	b4 60 00 10 	l.mfspr r3,r0,0x10
    1c60:	00 00 33 20 	l.j e8e0 <_or1k_exception_handler>
    1c64:	b4 80 00 20 	l.mfspr r4,r0,0x20
	...
    1d00:	d4 00 08 04 	l.sw 4(r0),r1
    1d04:	18 20 00 01 	l.movhi r1,0x1
    1d08:	a8 21 5e c4 	l.ori r1,r1,0x5ec4
    1d0c:	84 21 00 00 	l.lwz r1,0(r1)
    1d10:	e4 01 00 00 	l.sfeq r1,r0
    1d14:	0c 00 00 06 	l.bnf 1d2c <_or1k_reset+0x1c2c>
    1d18:	15 00 00 00 	l.nop 0x0
    1d1c:	18 20 00 01 	l.movhi r1,0x1
    1d20:	a8 21 5e c8 	l.ori r1,r1,0x5ec8
    1d24:	00 00 00 04 	l.j 1d34 <_or1k_reset+0x1c34>
    1d28:	84 21 00 00 	l.lwz r1,0(r1)
    1d2c:	84 20 00 04 	l.lwz r1,4(r0)
    1d30:	9c 21 ff 80 	l.addi r1,r1,-128
    1d34:	9c 21 ff 78 	l.addi r1,r1,-136
    1d38:	d4 01 18 0c 	l.sw 12(r1),r3
    1d3c:	84 60 00 04 	l.lwz r3,4(r0)
    1d40:	d4 01 18 04 	l.sw 4(r1),r3
    1d44:	d4 01 20 10 	l.sw 16(r1),r4
    1d48:	18 60 00 01 	l.movhi r3,0x1
    1d4c:	a8 63 5e c4 	l.ori r3,r3,0x5ec4
    1d50:	84 83 00 00 	l.lwz r4,0(r3)
    1d54:	9c 84 00 01 	l.addi r4,r4,1
    1d58:	d4 03 20 00 	l.sw 0(r3),r4
    1d5c:	b4 60 00 10 	l.mfspr r3,r0,0x10
    1d60:	00 00 32 e0 	l.j e8e0 <_or1k_exception_handler>
    1d64:	b4 80 00 20 	l.mfspr r4,r0,0x20
	...
    1e00:	d4 00 08 04 	l.sw 4(r0),r1
    1e04:	18 20 00 01 	l.movhi r1,0x1
    1e08:	a8 21 5e c4 	l.ori r1,r1,0x5ec4
    1e0c:	84 21 00 00 	l.lwz r1,0(r1)
    1e10:	e4 01 00 00 	l.sfeq r1,r0
    1e14:	0c 00 00 06 	l.bnf 1e2c <_or1k_reset+0x1d2c>
    1e18:	15 00 00 00 	l.nop 0x0
    1e1c:	18 20 00 01 	l.movhi r1,0x1
    1e20:	a8 21 5e c8 	l.ori r1,r1,0x5ec8
    1e24:	00 00 00 04 	l.j 1e34 <_or1k_reset+0x1d34>
    1e28:	84 21 00 00 	l.lwz r1,0(r1)
    1e2c:	84 20 00 04 	l.lwz r1,4(r0)
    1e30:	9c 21 ff 80 	l.addi r1,r1,-128
    1e34:	9c 21 ff 78 	l.addi r1,r1,-136
    1e38:	d4 01 18 0c 	l.sw 12(r1),r3
    1e3c:	84 60 00 04 	l.lwz r3,4(r0)
    1e40:	d4 01 18 04 	l.sw 4(r1),r3
    1e44:	d4 01 20 10 	l.sw 16(r1),r4
    1e48:	18 60 00 01 	l.movhi r3,0x1
    1e4c:	a8 63 5e c4 	l.ori r3,r3,0x5ec4
    1e50:	84 83 00 00 	l.lwz r4,0(r3)
    1e54:	9c 84 00 01 	l.addi r4,r4,1
    1e58:	d4 03 20 00 	l.sw 0(r3),r4
    1e5c:	b4 60 00 10 	l.mfspr r3,r0,0x10
    1e60:	00 00 32 a0 	l.j e8e0 <_or1k_exception_handler>
    1e64:	b4 80 00 20 	l.mfspr r4,r0,0x20
	...
    1f00:	d4 00 08 04 	l.sw 4(r0),r1
    1f04:	18 20 00 01 	l.movhi r1,0x1
    1f08:	a8 21 5e c4 	l.ori r1,r1,0x5ec4
    1f0c:	84 21 00 00 	l.lwz r1,0(r1)
    1f10:	e4 01 00 00 	l.sfeq r1,r0
    1f14:	0c 00 00 06 	l.bnf 1f2c <_or1k_reset+0x1e2c>
    1f18:	15 00 00 00 	l.nop 0x0
    1f1c:	18 20 00 01 	l.movhi r1,0x1
    1f20:	a8 21 5e c8 	l.ori r1,r1,0x5ec8
    1f24:	00 00 00 04 	l.j 1f34 <_or1k_reset+0x1e34>
    1f28:	84 21 00 00 	l.lwz r1,0(r1)
    1f2c:	84 20 00 04 	l.lwz r1,4(r0)
    1f30:	9c 21 ff 80 	l.addi r1,r1,-128
    1f34:	9c 21 ff 78 	l.addi r1,r1,-136
    1f38:	d4 01 18 0c 	l.sw 12(r1),r3
    1f3c:	84 60 00 04 	l.lwz r3,4(r0)
    1f40:	d4 01 18 04 	l.sw 4(r1),r3
    1f44:	d4 01 20 10 	l.sw 16(r1),r4
    1f48:	18 60 00 01 	l.movhi r3,0x1
    1f4c:	a8 63 5e c4 	l.ori r3,r3,0x5ec4
    1f50:	84 83 00 00 	l.lwz r4,0(r3)
    1f54:	9c 84 00 01 	l.addi r4,r4,1
    1f58:	d4 03 20 00 	l.sw 0(r3),r4
    1f5c:	b4 60 00 10 	l.mfspr r3,r0,0x10
    1f60:	00 00 32 60 	l.j e8e0 <_or1k_exception_handler>
    1f64:	b4 80 00 20 	l.mfspr r4,r0,0x20
	...
    1ffc:	15 00 00 00 	l.nop 0x0

Desensamblado de la sección .init:

00002000 <_init-0x4>:
    2000:	15 00 00 00 	l.nop 0x0

00002004 <_init>:
    2004:	9c 21 ff fc 	l.addi r1,r1,-4
    2008:	d4 01 48 00 	l.sw 0(r1),r9
    200c:	04 00 00 bd 	l.jal 2300 <frame_dummy>
    2010:	15 00 00 00 	l.nop 0x0
    2014:	04 00 41 f5 	l.jal 127e8 <__do_global_ctors_aux>
    2018:	15 00 00 00 	l.nop 0x0
    201c:	85 21 00 00 	l.lwz r9,0(r1)
    2020:	44 00 48 00 	l.jr r9
    2024:	9c 21 00 04 	l.addi r1,r1,4

Desensamblado de la sección .text:

00002028 <_or1k_start-0x8>:
    2028:	44 00 48 00 	l.jr r9
    202c:	15 00 00 00 	l.nop 0x0

00002030 <_or1k_start>:
    2030:	04 00 31 c4 	l.jal e740 <_or1k_cache_init>
    2034:	15 00 00 00 	l.nop 0x0
    2038:	04 00 34 ce 	l.jal f370 <_or1k_board_init_early>
    203c:	15 00 00 00 	l.nop 0x0
    2040:	18 60 00 01 	l.movhi r3,0x1
    2044:	a8 63 5d 08 	l.ori r3,r3,0x5d08
    2048:	18 80 00 01 	l.movhi r4,0x1
    204c:	a8 84 5f 50 	l.ori r4,r4,0x5f50
    2050:	d4 03 00 00 	l.sw 0(r3),r0
    2054:	e4 83 20 00 	l.sfltu r3,r4
    2058:	13 ff ff fe 	l.bf 2050 <_or1k_start+0x20>
    205c:	9c 63 00 04 	l.addi r3,r3,4
    2060:	18 20 00 00 	l.movhi r1,0x0
    2064:	a8 21 f3 4c 	l.ori r1,r1,0xf34c
    2068:	84 21 00 00 	l.lwz r1,0(r1)
    206c:	18 40 00 00 	l.movhi r2,0x0
    2070:	a8 42 f3 50 	l.ori r2,r2,0xf350
    2074:	84 42 00 00 	l.lwz r2,0(r2)
    2078:	e0 21 10 00 	l.add r1,r1,r2
    207c:	18 60 00 01 	l.movhi r3,0x1
    2080:	a8 63 5e c8 	l.ori r3,r3,0x5ec8
    2084:	d4 03 08 00 	l.sw 0(r3),r1
    2088:	18 60 00 01 	l.movhi r3,0x1
    208c:	a8 63 50 18 	l.ori r3,r3,0x5018
    2090:	84 63 00 00 	l.lwz r3,0(r3)
    2094:	e0 81 18 02 	l.sub r4,r1,r3
    2098:	18 a0 00 01 	l.movhi r5,0x1
    209c:	a8 a5 5e d0 	l.ori r5,r5,0x5ed0
    20a0:	d4 05 20 00 	l.sw 0(r5),r4
    20a4:	e0 20 20 04 	l.or r1,r0,r4
    20a8:	e0 41 08 04 	l.or r2,r1,r1
    20ac:	18 60 00 01 	l.movhi r3,0x1
    20b0:	a8 63 5e cc 	l.ori r3,r3,0x5ecc
    20b4:	d4 03 08 00 	l.sw 0(r3),r1
    20b8:	18 60 00 01 	l.movhi r3,0x1
    20bc:	a8 63 50 14 	l.ori r3,r3,0x5014
    20c0:	84 63 00 00 	l.lwz r3,0(r3)
    20c4:	e0 81 18 02 	l.sub r4,r1,r3
    20c8:	18 a0 00 01 	l.movhi r5,0x1
    20cc:	a8 a5 5e d4 	l.ori r5,r5,0x5ed4
    20d0:	d4 05 20 00 	l.sw 0(r5),r4
    20d4:	04 00 33 6b 	l.jal ee80 <_or1k_init>
    20d8:	15 00 00 00 	l.nop 0x0
    20dc:	04 00 32 fc 	l.jal eccc <_or1k_libc_impure_init>
    20e0:	15 00 00 00 	l.nop 0x0
    20e4:	07 ff ff c8 	l.jal 2004 <_init>
    20e8:	15 00 00 00 	l.nop 0x0
    20ec:	18 60 00 01 	l.movhi r3,0x1
    20f0:	04 00 03 b7 	l.jal 2fcc <atexit>
    20f4:	a8 63 28 58 	l.ori r3,r3,0x2858
    20f8:	18 80 00 00 	l.movhi r4,0x0
    20fc:	a8 84 f3 58 	l.ori r4,r4,0xf358
    2100:	84 84 00 00 	l.lwz r4,0(r4)
    2104:	e4 24 00 00 	l.sfne r4,r0
    2108:	0c 00 00 04 	l.bnf 2118 <_or1k_start+0xe8>
    210c:	e0 60 00 04 	l.or r3,r0,r0
    2110:	04 00 31 1f 	l.jal e58c <_or1k_uart_init>
    2114:	15 00 00 00 	l.nop 0x0
    2118:	04 00 34 b3 	l.jal f3e4 <_or1k_board_init>
    211c:	15 00 00 00 	l.nop 0x0
    2120:	e0 60 00 04 	l.or r3,r0,r0
    2124:	e0 80 00 04 	l.or r4,r0,r0
    2128:	04 00 01 24 	l.jal 25b8 <main>
    212c:	e0 a0 00 04 	l.or r5,r0,r0
    2130:	04 00 03 fa 	l.jal 3118 <exit>
    2134:	9c 6b 00 00 	l.addi r3,r11,0
    2138:	00 00 00 00 	l.j 2138 <_or1k_start+0x108>
    213c:	15 00 00 00 	l.nop 0x0

00002140 <deregister_tm_clones>:
    2140:	d7 e1 17 f8 	l.sw -8(r1),r2
    2144:	18 60 00 01 	l.movhi r3,0x1
    2148:	18 40 00 01 	l.movhi r2,0x1
    214c:	a8 63 5d 0b 	l.ori r3,r3,0x5d0b
    2150:	a8 42 5d 08 	l.ori r2,r2,0x5d08
    2154:	d7 e1 4f fc 	l.sw -4(r1),r9
    2158:	e0 63 10 02 	l.sub r3,r3,r2
    215c:	d7 e1 0f f4 	l.sw -12(r1),r1
    2160:	bc a3 00 06 	l.sfleui r3,6
    2164:	10 00 00 09 	l.bf 2188 <deregister_tm_clones+0x48>
    2168:	9c 21 ff f4 	l.addi r1,r1,-12
    216c:	18 80 00 00 	l.movhi r4,0x0
    2170:	a8 84 00 00 	l.ori r4,r4,0x0
    2174:	bc 04 00 00 	l.sfeqi r4,0
    2178:	10 00 00 04 	l.bf 2188 <deregister_tm_clones+0x48>
    217c:	15 00 00 00 	l.nop 0x0
    2180:	48 00 20 00 	l.jalr r4
    2184:	a8 62 00 00 	l.ori r3,r2,0x0
    2188:	9c 21 00 0c 	l.addi r1,r1,12
    218c:	85 21 ff fc 	l.lwz r9,-4(r1)
    2190:	84 21 ff f4 	l.lwz r1,-12(r1)
    2194:	44 00 48 00 	l.jr r9
    2198:	84 41 ff f8 	l.lwz r2,-8(r1)

0000219c <register_tm_clones>:
    219c:	d7 e1 17 f8 	l.sw -8(r1),r2
    21a0:	18 60 00 01 	l.movhi r3,0x1
    21a4:	18 40 00 01 	l.movhi r2,0x1
    21a8:	a8 63 5d 08 	l.ori r3,r3,0x5d08
    21ac:	a8 42 5d 08 	l.ori r2,r2,0x5d08
    21b0:	d7 e1 4f fc 	l.sw -4(r1),r9
    21b4:	e0 63 10 02 	l.sub r3,r3,r2
    21b8:	d7 e1 0f f4 	l.sw -12(r1),r1
    21bc:	b8 63 00 82 	l.srai r3,r3,0x2
    21c0:	b8 83 00 5f 	l.srli r4,r3,0x1f
    21c4:	e0 84 18 00 	l.add r4,r4,r3
    21c8:	b8 84 00 81 	l.srai r4,r4,0x1
    21cc:	bc 04 00 00 	l.sfeqi r4,0
    21d0:	10 00 00 09 	l.bf 21f4 <register_tm_clones+0x58>
    21d4:	9c 21 ff f4 	l.addi r1,r1,-12
    21d8:	18 a0 00 00 	l.movhi r5,0x0
    21dc:	a8 a5 00 00 	l.ori r5,r5,0x0
    21e0:	bc 05 00 00 	l.sfeqi r5,0
    21e4:	10 00 00 04 	l.bf 21f4 <register_tm_clones+0x58>
    21e8:	15 00 00 00 	l.nop 0x0
    21ec:	48 00 28 00 	l.jalr r5
    21f0:	a8 62 00 00 	l.ori r3,r2,0x0
    21f4:	9c 21 00 0c 	l.addi r1,r1,12
    21f8:	85 21 ff fc 	l.lwz r9,-4(r1)
    21fc:	84 21 ff f4 	l.lwz r1,-12(r1)
    2200:	44 00 48 00 	l.jr r9
    2204:	84 41 ff f8 	l.lwz r2,-8(r1)

00002208 <__do_global_dtors_aux>:
    2208:	d7 e1 a7 f8 	l.sw -8(r1),r20
    220c:	1a 80 00 01 	l.movhi r20,0x1
    2210:	d7 e1 17 ec 	l.sw -20(r1),r2
    2214:	aa 94 5d 08 	l.ori r20,r20,0x5d08
    2218:	d7 e1 4f fc 	l.sw -4(r1),r9
    221c:	8c 54 00 00 	l.lbz r2,0(r20)
    2220:	d7 e1 0f e8 	l.sw -24(r1),r1
    2224:	d7 e1 77 f0 	l.sw -16(r1),r14
    2228:	d7 e1 97 f4 	l.sw -12(r1),r18
    222c:	bc 22 00 00 	l.sfnei r2,0
    2230:	10 00 00 25 	l.bf 22c4 <__do_global_dtors_aux+0xbc>
    2234:	9c 21 ff e8 	l.addi r1,r1,-24
    2238:	19 c0 00 01 	l.movhi r14,0x1
    223c:	18 80 00 01 	l.movhi r4,0x1
    2240:	a9 ce 50 0c 	l.ori r14,r14,0x500c
    2244:	a8 84 50 08 	l.ori r4,r4,0x5008
    2248:	18 40 00 01 	l.movhi r2,0x1
    224c:	e1 ce 20 02 	l.sub r14,r14,r4
    2250:	a8 42 5d 0c 	l.ori r2,r2,0x5d0c
    2254:	b9 ce 00 82 	l.srai r14,r14,0x2
    2258:	84 62 00 00 	l.lwz r3,0(r2)
    225c:	aa 44 00 00 	l.ori r18,r4,0x0
    2260:	9d ce ff ff 	l.addi r14,r14,-1
    2264:	e4 83 70 00 	l.sfltu r3,r14
    2268:	0c 00 00 0c 	l.bnf 2298 <__do_global_dtors_aux+0x90>
    226c:	9c 63 00 01 	l.addi r3,r3,1
    2270:	b8 83 00 02 	l.slli r4,r3,0x2
    2274:	d4 02 18 00 	l.sw 0(r2),r3
    2278:	e0 72 20 00 	l.add r3,r18,r4
    227c:	84 63 00 00 	l.lwz r3,0(r3)
    2280:	48 00 18 00 	l.jalr r3
    2284:	15 00 00 00 	l.nop 0x0
    2288:	84 62 00 00 	l.lwz r3,0(r2)
    228c:	e4 83 70 00 	l.sfltu r3,r14
    2290:	13 ff ff f8 	l.bf 2270 <__do_global_dtors_aux+0x68>
    2294:	9c 63 00 01 	l.addi r3,r3,1
    2298:	07 ff ff aa 	l.jal 2140 <deregister_tm_clones>
    229c:	18 40 00 00 	l.movhi r2,0x0
    22a0:	a8 42 00 00 	l.ori r2,r2,0x0
    22a4:	bc 22 00 00 	l.sfnei r2,0
    22a8:	0c 00 00 06 	l.bnf 22c0 <__do_global_dtors_aux+0xb8>
    22ac:	9c 40 00 01 	l.addi r2,r0,1
    22b0:	18 60 00 01 	l.movhi r3,0x1
    22b4:	07 ff f7 53 	l.jal 0 <_or1k_reset-0x100>
    22b8:	a8 63 4f 80 	l.ori r3,r3,0x4f80
    22bc:	9c 40 00 01 	l.addi r2,r0,1
    22c0:	d8 14 10 00 	l.sb 0(r20),r2
    22c4:	9c 21 00 18 	l.addi r1,r1,24
    22c8:	85 21 ff fc 	l.lwz r9,-4(r1)
    22cc:	84 21 ff e8 	l.lwz r1,-24(r1)
    22d0:	84 41 ff ec 	l.lwz r2,-20(r1)
    22d4:	85 c1 ff f0 	l.lwz r14,-16(r1)
    22d8:	86 41 ff f4 	l.lwz r18,-12(r1)
    22dc:	44 00 48 00 	l.jr r9
    22e0:	86 81 ff f8 	l.lwz r20,-8(r1)

000022e4 <call___do_global_dtors_aux>:
    22e4:	d7 e1 4f fc 	l.sw -4(r1),r9
    22e8:	d7 e1 0f f8 	l.sw -8(r1),r1
    22ec:	9c 21 ff f8 	l.addi r1,r1,-8
    22f0:	9c 21 00 08 	l.addi r1,r1,8
    22f4:	85 21 ff fc 	l.lwz r9,-4(r1)
    22f8:	44 00 48 00 	l.jr r9
    22fc:	84 21 ff f8 	l.lwz r1,-8(r1)

00002300 <frame_dummy>:
    2300:	18 60 00 00 	l.movhi r3,0x0
    2304:	d7 e1 4f fc 	l.sw -4(r1),r9
    2308:	a8 63 00 00 	l.ori r3,r3,0x0
    230c:	d7 e1 0f f8 	l.sw -8(r1),r1
    2310:	bc 03 00 00 	l.sfeqi r3,0
    2314:	10 00 00 07 	l.bf 2330 <frame_dummy+0x30>
    2318:	9c 21 ff f8 	l.addi r1,r1,-8
    231c:	18 80 00 01 	l.movhi r4,0x1
    2320:	18 60 00 01 	l.movhi r3,0x1
    2324:	a8 84 5d 10 	l.ori r4,r4,0x5d10
    2328:	07 ff f7 36 	l.jal 0 <_or1k_reset-0x100>
    232c:	a8 63 4f 80 	l.ori r3,r3,0x4f80
    2330:	18 60 00 01 	l.movhi r3,0x1
    2334:	a8 63 50 10 	l.ori r3,r3,0x5010
    2338:	84 83 00 00 	l.lwz r4,0(r3)
    233c:	bc 04 00 00 	l.sfeqi r4,0
    2340:	0c 00 00 08 	l.bnf 2360 <frame_dummy+0x60>
    2344:	18 80 00 00 	l.movhi r4,0x0
    2348:	07 ff ff 95 	l.jal 219c <register_tm_clones>
    234c:	15 00 00 00 	l.nop 0x0
    2350:	9c 21 00 08 	l.addi r1,r1,8
    2354:	85 21 ff fc 	l.lwz r9,-4(r1)
    2358:	44 00 48 00 	l.jr r9
    235c:	84 21 ff f8 	l.lwz r1,-8(r1)
    2360:	a8 84 00 00 	l.ori r4,r4,0x0
    2364:	bc 04 00 00 	l.sfeqi r4,0
    2368:	13 ff ff f8 	l.bf 2348 <frame_dummy+0x48>
    236c:	15 00 00 00 	l.nop 0x0
    2370:	48 00 20 00 	l.jalr r4
    2374:	15 00 00 00 	l.nop 0x0
    2378:	03 ff ff f4 	l.j 2348 <frame_dummy+0x48>
    237c:	15 00 00 00 	l.nop 0x0

00002380 <call_frame_dummy>:
    2380:	d7 e1 4f fc 	l.sw -4(r1),r9
    2384:	d7 e1 0f f8 	l.sw -8(r1),r1
    2388:	9c 21 ff f8 	l.addi r1,r1,-8
    238c:	9c 21 00 08 	l.addi r1,r1,8
    2390:	85 21 ff fc 	l.lwz r9,-4(r1)
    2394:	44 00 48 00 	l.jr r9
    2398:	84 21 ff f8 	l.lwz r1,-8(r1)

0000239c <extract_bits>:
    239c:	d7 e1 17 fc 	l.sw -4(r1),r2
    23a0:	9c 41 00 00 	l.addi r2,r1,0
    23a4:	9c 21 ff f0 	l.addi r1,r1,-16
    23a8:	d7 e2 1f f8 	l.sw -8(r2),r3
    23ac:	d7 e2 27 f4 	l.sw -12(r2),r4
    23b0:	d7 e2 2f f0 	l.sw -16(r2),r5
    23b4:	84 82 ff f8 	l.lwz r4,-8(r2)
    23b8:	84 62 ff f0 	l.lwz r3,-16(r2)
    23bc:	e0 64 18 48 	l.srl r3,r4,r3
    23c0:	84 a2 ff f4 	l.lwz r5,-12(r2)
    23c4:	84 82 ff f0 	l.lwz r4,-16(r2)
    23c8:	e0 85 20 02 	l.sub r4,r5,r4
    23cc:	9c 84 00 01 	l.addi r4,r4,1
    23d0:	9c a0 ff ff 	l.addi r5,r0,-1
    23d4:	e0 85 20 08 	l.sll r4,r5,r4
    23d8:	ac 84 ff ff 	l.xori r4,r4,-1
    23dc:	e0 63 20 03 	l.and r3,r3,r4
    23e0:	a9 63 00 00 	l.ori r11,r3,0x0
    23e4:	a8 22 00 00 	l.ori r1,r2,0x0
    23e8:	84 41 ff fc 	l.lwz r2,-4(r1)
    23ec:	44 00 48 00 	l.jr r9
    23f0:	15 00 00 00 	l.nop 0x0

000023f4 <set_bits>:
    23f4:	d7 e1 17 fc 	l.sw -4(r1),r2
    23f8:	9c 41 00 00 	l.addi r2,r1,0
    23fc:	9c 21 ff ec 	l.addi r1,r1,-20
    2400:	d7 e2 1f f8 	l.sw -8(r2),r3
    2404:	d7 e2 27 f4 	l.sw -12(r2),r4
    2408:	d7 e2 2f f0 	l.sw -16(r2),r5
    240c:	d7 e2 37 ec 	l.sw -20(r2),r6
    2410:	84 62 ff f0 	l.lwz r3,-16(r2)
    2414:	bc 03 00 1f 	l.sfeqi r3,31
    2418:	10 00 00 20 	l.bf 2498 <set_bits+0xa4>
    241c:	15 00 00 00 	l.nop 0x0
    2420:	84 62 ff f0 	l.lwz r3,-16(r2)
    2424:	9c 63 00 01 	l.addi r3,r3,1
    2428:	9c 80 ff ff 	l.addi r4,r0,-1
    242c:	e0 84 18 08 	l.sll r4,r4,r3
    2430:	9c a0 ff ff 	l.addi r5,r0,-1
    2434:	84 62 ff ec 	l.lwz r3,-20(r2)
    2438:	e0 65 18 08 	l.sll r3,r5,r3
    243c:	ac 63 ff ff 	l.xori r3,r3,-1
    2440:	e0 64 18 04 	l.or r3,r4,r3
    2444:	a8 83 00 00 	l.ori r4,r3,0x0
    2448:	84 62 ff f8 	l.lwz r3,-8(r2)
    244c:	84 63 00 00 	l.lwz r3,0(r3)
    2450:	e0 84 18 03 	l.and r4,r4,r3
    2454:	84 a2 ff f0 	l.lwz r5,-16(r2)
    2458:	84 62 ff ec 	l.lwz r3,-20(r2)
    245c:	e0 65 18 02 	l.sub r3,r5,r3
    2460:	9c 63 00 01 	l.addi r3,r3,1
    2464:	9c a0 ff ff 	l.addi r5,r0,-1
    2468:	e0 65 18 08 	l.sll r3,r5,r3
    246c:	ac 63 ff ff 	l.xori r3,r3,-1
    2470:	a8 a3 00 00 	l.ori r5,r3,0x0
    2474:	84 62 ff f4 	l.lwz r3,-12(r2)
    2478:	e0 a5 18 03 	l.and r5,r5,r3
    247c:	84 62 ff ec 	l.lwz r3,-20(r2)
    2480:	e0 65 18 08 	l.sll r3,r5,r3
    2484:	e0 84 18 04 	l.or r4,r4,r3
    2488:	84 62 ff f8 	l.lwz r3,-8(r2)
    248c:	d4 03 20 00 	l.sw 0(r3),r4
    2490:	00 00 00 19 	l.j 24f4 <set_bits+0x100>
    2494:	15 00 00 00 	l.nop 0x0
    2498:	9c 80 ff ff 	l.addi r4,r0,-1
    249c:	84 62 ff ec 	l.lwz r3,-20(r2)
    24a0:	e0 64 18 08 	l.sll r3,r4,r3
    24a4:	ac 63 ff ff 	l.xori r3,r3,-1
    24a8:	a8 83 00 00 	l.ori r4,r3,0x0
    24ac:	84 62 ff f8 	l.lwz r3,-8(r2)
    24b0:	84 63 00 00 	l.lwz r3,0(r3)
    24b4:	e0 84 18 03 	l.and r4,r4,r3
    24b8:	84 a2 ff f0 	l.lwz r5,-16(r2)
    24bc:	84 62 ff ec 	l.lwz r3,-20(r2)
    24c0:	e0 65 18 02 	l.sub r3,r5,r3
    24c4:	9c 63 00 01 	l.addi r3,r3,1
    24c8:	9c a0 ff ff 	l.addi r5,r0,-1
    24cc:	e0 65 18 08 	l.sll r3,r5,r3
    24d0:	ac 63 ff ff 	l.xori r3,r3,-1
    24d4:	a8 a3 00 00 	l.ori r5,r3,0x0
    24d8:	84 62 ff f4 	l.lwz r3,-12(r2)
    24dc:	e0 a5 18 03 	l.and r5,r5,r3
    24e0:	84 62 ff ec 	l.lwz r3,-20(r2)
    24e4:	e0 65 18 08 	l.sll r3,r5,r3
    24e8:	e0 84 18 04 	l.or r4,r4,r3
    24ec:	84 62 ff f8 	l.lwz r3,-8(r2)
    24f0:	d4 03 20 00 	l.sw 0(r3),r4
    24f4:	15 00 00 00 	l.nop 0x0
    24f8:	a8 22 00 00 	l.ori r1,r2,0x0
    24fc:	84 41 ff fc 	l.lwz r2,-4(r1)
    2500:	44 00 48 00 	l.jr r9
    2504:	15 00 00 00 	l.nop 0x0

00002508 <recv>:
    2508:	d7 e1 17 f8 	l.sw -8(r1),r2
    250c:	9c 41 00 00 	l.addi r2,r1,0
    2510:	d7 e1 4f fc 	l.sw -4(r1),r9
    2514:	9c 21 ff e8 	l.addi r1,r1,-24
    2518:	d7 e2 1f ec 	l.sw -20(r2),r3
    251c:	d7 e2 27 e8 	l.sw -24(r2),r4
    2520:	84 62 ff e8 	l.lwz r3,-24(r2)
    2524:	bc 03 00 01 	l.sfeqi r3,1
    2528:	10 00 00 0b 	l.bf 2554 <recv+0x4c>
    252c:	15 00 00 00 	l.nop 0x0
    2530:	18 c0 00 01 	l.movhi r6,0x1
    2534:	a8 c6 28 74 	l.ori r6,r6,0x2874
    2538:	18 a0 00 01 	l.movhi r5,0x1
    253c:	a8 a5 28 c8 	l.ori r5,r5,0x28c8
    2540:	9c 80 00 31 	l.addi r4,r0,49
    2544:	18 60 00 01 	l.movhi r3,0x1
    2548:	a8 63 28 7b 	l.ori r3,r3,0x287b
    254c:	04 00 02 7b 	l.jal 2f38 <__assert_func>
    2550:	15 00 00 00 	l.nop 0x0
    2554:	84 62 ff ec 	l.lwz r3,-20(r2)
    2558:	84 63 00 00 	l.lwz r3,0(r3)
    255c:	9c a0 00 13 	l.addi r5,r0,19
    2560:	9c 80 00 17 	l.addi r4,r0,23
    2564:	07 ff ff 8e 	l.jal 239c <extract_bits>
    2568:	15 00 00 00 	l.nop 0x0
    256c:	a8 6b 00 00 	l.ori r3,r11,0x0
    2570:	d7 e2 1f f4 	l.sw -12(r2),r3
    2574:	84 62 ff f4 	l.lwz r3,-12(r2)
    2578:	04 00 01 da 	l.jal 2ce0 <optimsoc_get_tilerank>
    257c:	15 00 00 00 	l.nop 0x0
    2580:	d7 e2 5f f0 	l.sw -16(r2),r11
    2584:	18 60 00 01 	l.movhi r3,0x1
    2588:	a8 63 5d 28 	l.ori r3,r3,0x5d28
    258c:	84 63 00 00 	l.lwz r3,0(r3)
    2590:	9c 83 00 01 	l.addi r4,r3,1
    2594:	18 60 00 01 	l.movhi r3,0x1
    2598:	a8 63 5d 28 	l.ori r3,r3,0x5d28
    259c:	d4 03 20 00 	l.sw 0(r3),r4
    25a0:	15 00 00 00 	l.nop 0x0
    25a4:	a8 22 00 00 	l.ori r1,r2,0x0
    25a8:	84 41 ff f8 	l.lwz r2,-8(r1)
    25ac:	85 21 ff fc 	l.lwz r9,-4(r1)
    25b0:	44 00 48 00 	l.jr r9
    25b4:	15 00 00 00 	l.nop 0x0

000025b8 <main>:
    25b8:	d7 e1 17 f8 	l.sw -8(r1),r2
    25bc:	9c 41 00 00 	l.addi r2,r1,0
    25c0:	d7 e1 4f fc 	l.sw -4(r1),r9
    25c4:	9c 21 ff dc 	l.addi r1,r1,-36
    25c8:	04 00 32 60 	l.jal ef48 <or1k_coreid>
    25cc:	15 00 00 00 	l.nop 0x0
    25d0:	a8 6b 00 00 	l.ori r3,r11,0x0
    25d4:	bc 03 00 00 	l.sfeqi r3,0
    25d8:	10 00 00 05 	l.bf 25ec <main+0x34>
    25dc:	15 00 00 00 	l.nop 0x0
    25e0:	9c 60 00 00 	l.addi r3,r0,0
    25e4:	00 00 00 77 	l.j 27c0 <main+0x208>
    25e8:	15 00 00 00 	l.nop 0x0
    25ec:	9c 60 00 00 	l.addi r3,r0,0
    25f0:	04 00 01 e6 	l.jal 2d88 <optimsoc_init>
    25f4:	15 00 00 00 	l.nop 0x0
    25f8:	04 00 00 f5 	l.jal 29cc <optimsoc_mp_simple_init>
    25fc:	15 00 00 00 	l.nop 0x0
    2600:	18 80 00 00 	l.movhi r4,0x0
    2604:	a8 84 25 08 	l.ori r4,r4,0x2508
    2608:	9c 60 00 00 	l.addi r3,r0,0
    260c:	04 00 01 60 	l.jal 2b8c <optimsoc_mp_simple_addhandler>
    2610:	15 00 00 00 	l.nop 0x0
    2614:	04 00 31 27 	l.jal eab0 <or1k_interrupts_enable>
    2618:	15 00 00 00 	l.nop 0x0
    261c:	04 00 01 92 	l.jal 2c64 <optimsoc_get_ctrank>
    2620:	15 00 00 00 	l.nop 0x0
    2624:	d7 e2 5f f0 	l.sw -16(r2),r11
    2628:	04 00 01 15 	l.jal 2a7c <optimsoc_mp_simple_num_endpoints>
    262c:	15 00 00 00 	l.nop 0x0
    2630:	a8 6b 00 00 	l.ori r3,r11,0x0
    2634:	d7 e2 1f ec 	l.sw -20(r2),r3
    2638:	84 62 ff f0 	l.lwz r3,-16(r2)
    263c:	bc 23 00 00 	l.sfnei r3,0
    2640:	10 00 00 29 	l.bf 26e4 <main+0x12c>
    2644:	15 00 00 00 	l.nop 0x0
    2648:	04 00 01 7f 	l.jal 2c44 <optimsoc_get_numct>
    264c:	15 00 00 00 	l.nop 0x0
    2650:	a8 6b 00 00 	l.ori r3,r11,0x0
    2654:	9c 83 ff ff 	l.addi r4,r3,-1
    2658:	84 62 ff ec 	l.lwz r3,-20(r2)
    265c:	e0 64 1b 06 	l.mul r3,r4,r3
    2660:	d7 e2 1f e8 	l.sw -24(r2),r3
    2664:	84 62 ff e8 	l.lwz r3,-24(r2)
    2668:	d4 01 18 00 	l.sw 0(r1),r3
    266c:	18 60 00 01 	l.movhi r3,0x1
    2670:	a8 63 28 8c 	l.ori r3,r3,0x288c
    2674:	04 00 06 12 	l.jal 3ebc <printf>
    2678:	15 00 00 00 	l.nop 0x0
    267c:	9c 60 00 00 	l.addi r3,r0,0
    2680:	04 00 01 07 	l.jal 2a9c <optimsoc_mp_simple_enable>
    2684:	15 00 00 00 	l.nop 0x0
    2688:	9c 60 00 01 	l.addi r3,r0,1
    268c:	04 00 01 04 	l.jal 2a9c <optimsoc_mp_simple_enable>
    2690:	15 00 00 00 	l.nop 0x0
    2694:	15 00 00 00 	l.nop 0x0
    2698:	18 60 00 01 	l.movhi r3,0x1
    269c:	a8 63 5d 28 	l.ori r3,r3,0x5d28
    26a0:	84 83 00 00 	l.lwz r4,0(r3)
    26a4:	84 62 ff e8 	l.lwz r3,-24(r2)
    26a8:	e4 84 18 00 	l.sfltu r4,r3
    26ac:	13 ff ff fb 	l.bf 2698 <main+0xe0>
    26b0:	15 00 00 00 	l.nop 0x0
    26b4:	04 00 01 64 	l.jal 2c44 <optimsoc_get_numct>
    26b8:	15 00 00 00 	l.nop 0x0
    26bc:	a8 6b 00 00 	l.ori r3,r11,0x0
    26c0:	d4 01 18 04 	l.sw 4(r1),r3
    26c4:	84 62 ff f0 	l.lwz r3,-16(r2)
    26c8:	d4 01 18 00 	l.sw 0(r1),r3
    26cc:	18 60 00 01 	l.movhi r3,0x1
    26d0:	a8 63 28 a2 	l.ori r3,r3,0x28a2
    26d4:	04 00 05 fa 	l.jal 3ebc <printf>
    26d8:	15 00 00 00 	l.nop 0x0
    26dc:	00 00 00 38 	l.j 27bc <main+0x204>
    26e0:	15 00 00 00 	l.nop 0x0
    26e4:	9c 60 00 00 	l.addi r3,r0,0
    26e8:	d7 e2 1f f4 	l.sw -12(r2),r3
    26ec:	00 00 00 2f 	l.j 27a8 <main+0x1f0>
    26f0:	15 00 00 00 	l.nop 0x0
    26f4:	15 00 00 00 	l.nop 0x0
    26f8:	84 62 ff f4 	l.lwz r3,-12(r2)
    26fc:	a4 63 ff ff 	l.andi r3,r3,0xffff
    2700:	a8 83 00 00 	l.ori r4,r3,0x0
    2704:	9c 60 00 00 	l.addi r3,r0,0
    2708:	04 00 00 f3 	l.jal 2ad4 <optimsoc_mp_simple_ctready>
    270c:	15 00 00 00 	l.nop 0x0
    2710:	a8 6b 00 00 	l.ori r3,r11,0x0
    2714:	bc 03 00 00 	l.sfeqi r3,0
    2718:	13 ff ff f8 	l.bf 26f8 <main+0x140>
    271c:	15 00 00 00 	l.nop 0x0
    2720:	9c 60 00 00 	l.addi r3,r0,0
    2724:	d7 e2 1f e4 	l.sw -28(r2),r3
    2728:	9c 62 ff e4 	l.addi r3,r2,-28
    272c:	9c c0 00 1b 	l.addi r6,r0,27
    2730:	9c a0 00 1f 	l.addi r5,r0,31
    2734:	9c 80 00 00 	l.addi r4,r0,0
    2738:	07 ff ff 2f 	l.jal 23f4 <set_bits>
    273c:	15 00 00 00 	l.nop 0x0
    2740:	9c 62 ff e4 	l.addi r3,r2,-28
    2744:	9c c0 00 18 	l.addi r6,r0,24
    2748:	9c a0 00 1a 	l.addi r5,r0,26
    274c:	9c 80 00 00 	l.addi r4,r0,0
    2750:	07 ff ff 29 	l.jal 23f4 <set_bits>
    2754:	15 00 00 00 	l.nop 0x0
    2758:	84 62 ff f0 	l.lwz r3,-16(r2)
    275c:	04 00 01 7f 	l.jal 2d58 <optimsoc_get_ranktile>
    2760:	15 00 00 00 	l.nop 0x0
    2764:	a8 6b 00 00 	l.ori r3,r11,0x0
    2768:	a8 83 00 00 	l.ori r4,r3,0x0
    276c:	9c 62 ff e4 	l.addi r3,r2,-28
    2770:	9c c0 00 13 	l.addi r6,r0,19
    2774:	9c a0 00 17 	l.addi r5,r0,23
    2778:	07 ff ff 1f 	l.jal 23f4 <set_bits>
    277c:	15 00 00 00 	l.nop 0x0
    2780:	84 62 ff f4 	l.lwz r3,-12(r2)
    2784:	a4 63 ff ff 	l.andi r3,r3,0xffff
    2788:	9c 82 ff e4 	l.addi r4,r2,-28
    278c:	a8 a4 00 00 	l.ori r5,r4,0x0
    2790:	9c 80 00 01 	l.addi r4,r0,1
    2794:	04 00 01 0b 	l.jal 2bc0 <optimsoc_mp_simple_send>
    2798:	15 00 00 00 	l.nop 0x0
    279c:	84 62 ff f4 	l.lwz r3,-12(r2)
    27a0:	9c 63 00 01 	l.addi r3,r3,1
    27a4:	d7 e2 1f f4 	l.sw -12(r2),r3
    27a8:	84 82 ff f4 	l.lwz r4,-12(r2)
    27ac:	84 62 ff ec 	l.lwz r3,-20(r2)
    27b0:	e4 84 18 00 	l.sfltu r4,r3
    27b4:	13 ff ff d0 	l.bf 26f4 <main+0x13c>
    27b8:	15 00 00 00 	l.nop 0x0
    27bc:	9c 60 00 00 	l.addi r3,r0,0
    27c0:	a9 63 00 00 	l.ori r11,r3,0x0
    27c4:	a8 22 00 00 	l.ori r1,r2,0x0
    27c8:	84 41 ff f8 	l.lwz r2,-8(r1)
    27cc:	85 21 ff fc 	l.lwz r9,-4(r1)
    27d0:	44 00 48 00 	l.jr r9
    27d4:	15 00 00 00 	l.nop 0x0

000027d8 <_irq_handler>:
    27d8:	d7 e1 97 e0 	l.sw -32(r1),r18
    27dc:	1a 40 00 01 	l.movhi r18,0x1
    27e0:	d7 e1 a7 e4 	l.sw -28(r1),r20
    27e4:	aa 52 5d 2c 	l.ori r18,r18,0x5d2c
    27e8:	d7 e1 c7 ec 	l.sw -20(r1),r24
    27ec:	1a 80 00 01 	l.movhi r20,0x1
    27f0:	1b 00 00 01 	l.movhi r24,0x1
    27f4:	d7 e1 17 d8 	l.sw -40(r1),r2
    27f8:	94 52 00 00 	l.lhz r2,0(r18)
    27fc:	d7 e1 4f fc 	l.sw -4(r1),r9
    2800:	d7 e1 0f d4 	l.sw -44(r1),r1
    2804:	d7 e1 77 dc 	l.sw -36(r1),r14
    2808:	d7 e1 b7 e8 	l.sw -24(r1),r22
    280c:	d7 e1 d7 f0 	l.sw -16(r1),r26
    2810:	d7 e1 e7 f4 	l.sw -12(r1),r28
    2814:	d7 e1 f7 f8 	l.sw -8(r1),r30
    2818:	ab 18 5d 30 	l.ori r24,r24,0x5d30
    281c:	9c 21 ff d4 	l.addi r1,r1,-44
    2820:	aa 94 5d 34 	l.ori r20,r20,0x5d34
    2824:	bc 22 00 00 	l.sfnei r2,0
    2828:	0c 00 00 3a 	l.bnf 2910 <_irq_handler+0x138>
    282c:	9d c0 00 00 	l.addi r14,r0,0
    2830:	00 00 00 0a 	l.j 2858 <_irq_handler+0x80>
    2834:	ab 8e 00 00 	l.ori r28,r14,0x0
    2838:	9f 9c 00 01 	l.addi r28,r28,1
    283c:	a7 9c ff ff 	l.andi r28,r28,0xffff
    2840:	9d ce 00 01 	l.addi r14,r14,1
    2844:	94 52 00 00 	l.lhz r2,0(r18)
    2848:	a5 ce ff ff 	l.andi r14,r14,0xffff
    284c:	e4 42 70 00 	l.sfgtu r2,r14
    2850:	0c 00 00 2e 	l.bnf 2908 <_irq_handler+0x130>
    2854:	e4 1c 10 00 	l.sfeq r28,r2
    2858:	18 60 e0 10 	l.movhi r3,0xe010
    285c:	b8 4e 00 0d 	l.slli r2,r14,0xd
    2860:	a8 63 20 00 	l.ori r3,r3,0x2000
    2864:	e0 42 18 00 	l.add r2,r2,r3
    2868:	87 42 00 00 	l.lwz r26,0(r2)
    286c:	bc 3a 00 00 	l.sfnei r26,0
    2870:	0f ff ff f2 	l.bnf 2838 <_irq_handler+0x60>
    2874:	15 00 00 00 	l.nop 0x0
    2878:	04 00 01 59 	l.jal 2ddc <optimsoc_noc_maxpacketsize>
    287c:	15 00 00 00 	l.nop 0x0
    2880:	e4 ba 58 00 	l.sfleu r26,r11
    2884:	10 00 00 30 	l.bf 2944 <_irq_handler+0x16c>
    2888:	b8 ba 00 02 	l.slli r5,r26,0x2
    288c:	9c 60 00 00 	l.addi r3,r0,0
    2890:	9c 63 00 01 	l.addi r3,r3,1
    2894:	84 82 00 00 	l.lwz r4,0(r2)
    2898:	e4 3a 18 00 	l.sfne r26,r3
    289c:	13 ff ff fe 	l.bf 2894 <_irq_handler+0xbc>
    28a0:	9c 63 00 01 	l.addi r3,r3,1
    28a4:	84 d4 00 00 	l.lwz r6,0(r20)
    28a8:	1a c0 00 01 	l.movhi r22,0x1
    28ac:	87 c6 00 00 	l.lwz r30,0(r6)
    28b0:	b8 5e 00 58 	l.srli r2,r30,0x18
    28b4:	a4 42 00 07 	l.andi r2,r2,0x7
    28b8:	bc 22 00 07 	l.sfnei r2,7
    28bc:	0c 00 00 32 	l.bnf 2984 <_irq_handler+0x1ac>
    28c0:	aa d6 5d 34 	l.ori r22,r22,0x5d34
    28c4:	18 60 00 01 	l.movhi r3,0x1
    28c8:	b8 42 00 02 	l.slli r2,r2,0x2
    28cc:	a8 63 5d 7c 	l.ori r3,r3,0x5d7c
    28d0:	e0 42 18 00 	l.add r2,r2,r3
    28d4:	84 42 00 00 	l.lwz r2,0(r2)
    28d8:	bc 02 00 00 	l.sfeqi r2,0
    28dc:	13 ff ff d9 	l.bf 2840 <_irq_handler+0x68>
    28e0:	a8 9a 00 00 	l.ori r4,r26,0x0
    28e4:	84 76 00 00 	l.lwz r3,0(r22)
    28e8:	48 00 10 00 	l.jalr r2
    28ec:	9d ce 00 01 	l.addi r14,r14,1
    28f0:	94 52 00 00 	l.lhz r2,0(r18)
    28f4:	a5 ce ff ff 	l.andi r14,r14,0xffff
    28f8:	e4 42 70 00 	l.sfgtu r2,r14
    28fc:	13 ff ff d8 	l.bf 285c <_irq_handler+0x84>
    2900:	18 60 e0 10 	l.movhi r3,0xe010
    2904:	e4 1c 10 00 	l.sfeq r28,r2
    2908:	0f ff ff c8 	l.bnf 2828 <_irq_handler+0x50>
    290c:	bc 22 00 00 	l.sfnei r2,0
    2910:	9c 21 00 2c 	l.addi r1,r1,44
    2914:	85 21 ff fc 	l.lwz r9,-4(r1)
    2918:	84 21 ff d4 	l.lwz r1,-44(r1)
    291c:	84 41 ff d8 	l.lwz r2,-40(r1)
    2920:	85 c1 ff dc 	l.lwz r14,-36(r1)
    2924:	86 41 ff e0 	l.lwz r18,-32(r1)
    2928:	86 81 ff e4 	l.lwz r20,-28(r1)
    292c:	86 c1 ff e8 	l.lwz r22,-24(r1)
    2930:	87 01 ff ec 	l.lwz r24,-20(r1)
    2934:	87 41 ff f0 	l.lwz r26,-16(r1)
    2938:	87 81 ff f4 	l.lwz r28,-12(r1)
    293c:	44 00 48 00 	l.jr r9
    2940:	87 c1 ff f8 	l.lwz r30,-8(r1)
    2944:	84 d4 00 00 	l.lwz r6,0(r20)
    2948:	1a c0 00 01 	l.movhi r22,0x1
    294c:	a8 66 00 00 	l.ori r3,r6,0x0
    2950:	aa d6 5d 34 	l.ori r22,r22,0x5d34
    2954:	e0 a6 28 00 	l.add r5,r6,r5
    2958:	9c 63 00 04 	l.addi r3,r3,4
    295c:	84 82 00 00 	l.lwz r4,0(r2)
    2960:	e4 25 18 00 	l.sfne r5,r3
    2964:	13 ff ff fd 	l.bf 2958 <_irq_handler+0x180>
    2968:	d7 e3 27 fc 	l.sw -4(r3),r4
    296c:	87 c6 00 00 	l.lwz r30,0(r6)
    2970:	b8 5e 00 58 	l.srli r2,r30,0x18
    2974:	a4 42 00 07 	l.andi r2,r2,0x7
    2978:	bc 22 00 07 	l.sfnei r2,7
    297c:	13 ff ff d3 	l.bf 28c8 <_irq_handler+0xf0>
    2980:	18 60 00 01 	l.movhi r3,0x1
    2984:	a4 7e 00 02 	l.andi r3,r30,0x2
    2988:	bc 03 00 00 	l.sfeqi r3,0
    298c:	13 ff ff ce 	l.bf 28c4 <_irq_handler+0xec>
    2990:	b8 7e 00 53 	l.srli r3,r30,0x13
    2994:	bb de 00 42 	l.srli r30,r30,0x2
    2998:	a4 63 00 1f 	l.andi r3,r3,0x1f
    299c:	04 00 00 d1 	l.jal 2ce0 <optimsoc_get_tilerank>
    29a0:	a7 de 00 ff 	l.andi r30,r30,0xff
    29a4:	b9 6b 00 02 	l.slli r11,r11,0x2
    29a8:	84 98 00 00 	l.lwz r4,0(r24)
    29ac:	9c a0 00 01 	l.addi r5,r0,1
    29b0:	e0 84 58 00 	l.add r4,r4,r11
    29b4:	e0 65 f0 08 	l.sll r3,r5,r30
    29b8:	84 a4 00 00 	l.lwz r5,0(r4)
    29bc:	e0 63 28 04 	l.or r3,r3,r5
    29c0:	d4 04 18 00 	l.sw 0(r4),r3
    29c4:	03 ff ff c1 	l.j 28c8 <_irq_handler+0xf0>
    29c8:	18 60 00 01 	l.movhi r3,0x1

000029cc <optimsoc_mp_simple_init>:
    29cc:	18 80 00 00 	l.movhi r4,0x0
    29d0:	d7 e1 4f fc 	l.sw -4(r1),r9
    29d4:	d7 e1 0f f4 	l.sw -12(r1),r1
    29d8:	d7 e1 17 f8 	l.sw -8(r1),r2
    29dc:	9c a0 00 00 	l.addi r5,r0,0
    29e0:	9c 21 ff f4 	l.addi r1,r1,-12
    29e4:	a8 84 27 d8 	l.ori r4,r4,0x27d8
    29e8:	04 00 30 22 	l.jal ea70 <or1k_interrupt_handler_add>
    29ec:	9c 60 00 03 	l.addi r3,r0,3
    29f0:	04 00 30 76 	l.jal ebc8 <or1k_interrupt_enable>
    29f4:	9c 60 00 03 	l.addi r3,r0,3
    29f8:	18 60 00 01 	l.movhi r3,0x1
    29fc:	a8 63 5d 7c 	l.ori r3,r3,0x5d7c
    2a00:	9c 40 00 00 	l.addi r2,r0,0
    2a04:	9c 63 00 04 	l.addi r3,r3,4
    2a08:	d7 e3 17 fc 	l.sw -4(r3),r2
    2a0c:	18 40 00 01 	l.movhi r2,0x1
    2a10:	a8 42 5d 9c 	l.ori r2,r2,0x5d9c
    2a14:	e4 23 10 00 	l.sfne r3,r2
    2a18:	13 ff ff fa 	l.bf 2a00 <optimsoc_mp_simple_init+0x34>
    2a1c:	15 00 00 00 	l.nop 0x0
    2a20:	18 60 e0 10 	l.movhi r3,0xe010
    2a24:	84 83 00 00 	l.lwz r4,0(r3)
    2a28:	18 60 00 01 	l.movhi r3,0x1
    2a2c:	a8 63 5d 2c 	l.ori r3,r3,0x5d2c
    2a30:	04 00 00 85 	l.jal 2c44 <optimsoc_get_numct>
    2a34:	dc 03 20 00 	l.sh 0(r3),r4
    2a38:	9c 80 00 04 	l.addi r4,r0,4
    2a3c:	04 00 01 70 	l.jal 2ffc <calloc>
    2a40:	a8 6b 00 00 	l.ori r3,r11,0x0
    2a44:	18 60 00 01 	l.movhi r3,0x1
    2a48:	a8 63 5d 30 	l.ori r3,r3,0x5d30
    2a4c:	04 00 00 e4 	l.jal 2ddc <optimsoc_noc_maxpacketsize>
    2a50:	d4 03 58 00 	l.sw 0(r3),r11
    2a54:	04 00 01 df 	l.jal 31d0 <malloc>
    2a58:	b8 6b 00 02 	l.slli r3,r11,0x2
    2a5c:	18 60 00 01 	l.movhi r3,0x1
    2a60:	a8 63 5d 34 	l.ori r3,r3,0x5d34
    2a64:	d4 03 58 00 	l.sw 0(r3),r11
    2a68:	9c 21 00 0c 	l.addi r1,r1,12
    2a6c:	85 21 ff fc 	l.lwz r9,-4(r1)
    2a70:	84 21 ff f4 	l.lwz r1,-12(r1)
    2a74:	44 00 48 00 	l.jr r9
    2a78:	84 41 ff f8 	l.lwz r2,-8(r1)

00002a7c <optimsoc_mp_simple_num_endpoints>:
    2a7c:	18 60 00 01 	l.movhi r3,0x1
    2a80:	d7 e1 0f fc 	l.sw -4(r1),r1
    2a84:	a8 63 5d 2c 	l.ori r3,r3,0x5d2c
    2a88:	9c 21 ff fc 	l.addi r1,r1,-4
    2a8c:	95 63 00 00 	l.lhz r11,0(r3)
    2a90:	9c 21 00 04 	l.addi r1,r1,4
    2a94:	44 00 48 00 	l.jr r9
    2a98:	84 21 ff fc 	l.lwz r1,-4(r1)

00002a9c <optimsoc_mp_simple_enable>:
    2a9c:	a4 63 ff ff 	l.andi r3,r3,0xffff
    2aa0:	d7 e1 17 fc 	l.sw -4(r1),r2
    2aa4:	18 40 e0 10 	l.movhi r2,0xe010
    2aa8:	b8 63 00 0d 	l.slli r3,r3,0xd
    2aac:	a8 42 20 04 	l.ori r2,r2,0x2004
    2ab0:	9c 80 00 01 	l.addi r4,r0,1
    2ab4:	e0 63 10 00 	l.add r3,r3,r2
    2ab8:	d7 e1 0f f8 	l.sw -8(r1),r1
    2abc:	9c 21 ff f8 	l.addi r1,r1,-8
    2ac0:	d4 03 20 00 	l.sw 0(r3),r4
    2ac4:	9c 21 00 08 	l.addi r1,r1,8
    2ac8:	84 21 ff f8 	l.lwz r1,-8(r1)
    2acc:	44 00 48 00 	l.jr r9
    2ad0:	84 41 ff fc 	l.lwz r2,-4(r1)

00002ad4 <optimsoc_mp_simple_ctready>:
    2ad4:	18 a0 00 01 	l.movhi r5,0x1
    2ad8:	d7 e1 17 f0 	l.sw -16(r1),r2
    2adc:	a8 a5 5d 30 	l.ori r5,r5,0x5d30
    2ae0:	b8 43 00 02 	l.slli r2,r3,0x2
    2ae4:	84 a5 00 00 	l.lwz r5,0(r5)
    2ae8:	d7 e1 77 f4 	l.sw -12(r1),r14
    2aec:	e0 45 10 00 	l.add r2,r5,r2
    2af0:	a5 c4 ff ff 	l.andi r14,r4,0xffff
    2af4:	84 42 00 00 	l.lwz r2,0(r2)
    2af8:	d7 e1 97 f8 	l.sw -8(r1),r18
    2afc:	e0 42 70 48 	l.srl r2,r2,r14
    2b00:	9e 40 00 01 	l.addi r18,r0,1
    2b04:	d7 e1 4f fc 	l.sw -4(r1),r9
    2b08:	e0 42 90 03 	l.and r2,r2,r18
    2b0c:	d7 e1 0f ec 	l.sw -20(r1),r1
    2b10:	bc 22 00 00 	l.sfnei r2,0
    2b14:	10 00 00 16 	l.bf 2b6c <optimsoc_mp_simple_ctready+0x98>
    2b18:	9c 21 ff ec 	l.addi r1,r1,-20
    2b1c:	04 00 00 8f 	l.jal 2d58 <optimsoc_get_ranktile>
    2b20:	15 00 00 00 	l.nop 0x0
    2b24:	18 60 e0 00 	l.movhi r3,0xe000
    2b28:	18 a0 e0 10 	l.movhi r5,0xe010
    2b2c:	84 63 00 00 	l.lwz r3,0(r3)
    2b30:	a4 8e 00 ff 	l.andi r4,r14,0xff
    2b34:	a4 63 00 1f 	l.andi r3,r3,0x1f
    2b38:	b9 ce 00 0d 	l.slli r14,r14,0xd
    2b3c:	a8 a5 20 00 	l.ori r5,r5,0x2000
    2b40:	b8 63 00 13 	l.slli r3,r3,0x13
    2b44:	e1 ce 28 00 	l.add r14,r14,r5
    2b48:	18 a0 07 00 	l.movhi r5,0x700
    2b4c:	b9 6b 00 1b 	l.slli r11,r11,0x1b
    2b50:	e0 63 28 04 	l.or r3,r3,r5
    2b54:	b8 84 00 02 	l.slli r4,r4,0x2
    2b58:	e0 63 58 04 	l.or r3,r3,r11
    2b5c:	d4 0e 90 00 	l.sw 0(r14),r18
    2b60:	e0 64 18 04 	l.or r3,r4,r3
    2b64:	aa 42 00 00 	l.ori r18,r2,0x0
    2b68:	d4 0e 18 00 	l.sw 0(r14),r3
    2b6c:	9c 21 00 14 	l.addi r1,r1,20
    2b70:	a9 72 00 00 	l.ori r11,r18,0x0
    2b74:	85 21 ff fc 	l.lwz r9,-4(r1)
    2b78:	84 21 ff ec 	l.lwz r1,-20(r1)
    2b7c:	84 41 ff f0 	l.lwz r2,-16(r1)
    2b80:	85 c1 ff f4 	l.lwz r14,-12(r1)
    2b84:	44 00 48 00 	l.jr r9
    2b88:	86 41 ff f8 	l.lwz r18,-8(r1)

00002b8c <optimsoc_mp_simple_addhandler>:
    2b8c:	a4 63 00 ff 	l.andi r3,r3,0xff
    2b90:	d7 e1 17 fc 	l.sw -4(r1),r2
    2b94:	18 40 00 01 	l.movhi r2,0x1
    2b98:	b8 63 00 02 	l.slli r3,r3,0x2
    2b9c:	a8 42 5d 7c 	l.ori r2,r2,0x5d7c
    2ba0:	d7 e1 0f f8 	l.sw -8(r1),r1
    2ba4:	e0 63 10 00 	l.add r3,r3,r2
    2ba8:	9c 21 ff f8 	l.addi r1,r1,-8
    2bac:	d4 03 20 00 	l.sw 0(r3),r4
    2bb0:	9c 21 00 08 	l.addi r1,r1,8
    2bb4:	84 21 ff f8 	l.lwz r1,-8(r1)
    2bb8:	44 00 48 00 	l.jr r9
    2bbc:	84 41 ff fc 	l.lwz r2,-4(r1)

00002bc0 <optimsoc_mp_simple_send>:
    2bc0:	d7 e1 17 f8 	l.sw -8(r1),r2
    2bc4:	d7 e1 4f fc 	l.sw -4(r1),r9
    2bc8:	d7 e1 0f f4 	l.sw -12(r1),r1
    2bcc:	9c 21 ff ec 	l.addi r1,r1,-20
    2bd0:	a4 43 ff ff 	l.andi r2,r3,0xffff
    2bd4:	d4 01 20 04 	l.sw 4(r1),r4
    2bd8:	04 00 30 bd 	l.jal eecc <or1k_critical_begin>
    2bdc:	d4 01 28 00 	l.sw 0(r1),r5
    2be0:	b8 e2 00 0d 	l.slli r7,r2,0xd
    2be4:	18 40 e0 10 	l.movhi r2,0xe010
    2be8:	84 81 00 04 	l.lwz r4,4(r1)
    2bec:	a8 42 20 00 	l.ori r2,r2,0x2000
    2bf0:	bc 24 00 00 	l.sfnei r4,0
    2bf4:	e0 e7 10 00 	l.add r7,r7,r2
    2bf8:	a8 6b 00 00 	l.ori r3,r11,0x0
    2bfc:	d4 07 20 00 	l.sw 0(r7),r4
    2c00:	0c 00 00 0a 	l.bnf 2c28 <optimsoc_mp_simple_send+0x68>
    2c04:	84 a1 00 00 	l.lwz r5,0(r1)
    2c08:	b8 84 00 02 	l.slli r4,r4,0x2
    2c0c:	e0 85 20 00 	l.add r4,r5,r4
    2c10:	84 c5 00 00 	l.lwz r6,0(r5)
    2c14:	9c a5 00 04 	l.addi r5,r5,4
    2c18:	d4 07 30 00 	l.sw 0(r7),r6
    2c1c:	e4 25 20 00 	l.sfne r5,r4
    2c20:	13 ff ff fc 	l.bf 2c10 <optimsoc_mp_simple_send+0x50>
    2c24:	15 00 00 00 	l.nop 0x0
    2c28:	04 00 30 b7 	l.jal ef04 <or1k_critical_end>
    2c2c:	15 00 00 00 	l.nop 0x0
    2c30:	9c 21 00 14 	l.addi r1,r1,20
    2c34:	85 21 ff fc 	l.lwz r9,-4(r1)
    2c38:	84 21 ff f4 	l.lwz r1,-12(r1)
    2c3c:	44 00 48 00 	l.jr r9
    2c40:	84 41 ff f8 	l.lwz r2,-8(r1)

00002c44 <optimsoc_get_numct>:
    2c44:	18 60 e0 00 	l.movhi r3,0xe000
    2c48:	d7 e1 0f fc 	l.sw -4(r1),r1
    2c4c:	a8 63 00 28 	l.ori r3,r3,0x28
    2c50:	9c 21 ff fc 	l.addi r1,r1,-4
    2c54:	85 63 00 00 	l.lwz r11,0(r3)
    2c58:	9c 21 00 04 	l.addi r1,r1,4
    2c5c:	44 00 48 00 	l.jr r9
    2c60:	84 21 ff fc 	l.lwz r1,-4(r1)

00002c64 <optimsoc_get_ctrank>:
    2c64:	18 60 e0 00 	l.movhi r3,0xe000
    2c68:	d7 e1 0f fc 	l.sw -4(r1),r1
    2c6c:	a8 a3 00 28 	l.ori r5,r3,0x28
    2c70:	84 c3 00 00 	l.lwz r6,0(r3)
    2c74:	84 85 00 00 	l.lwz r4,0(r5)
    2c78:	bc 04 00 00 	l.sfeqi r4,0
    2c7c:	10 00 00 13 	l.bf 2cc8 <optimsoc_get_ctrank+0x64>
    2c80:	9c 21 ff fc 	l.addi r1,r1,-4
    2c84:	a8 83 02 00 	l.ori r4,r3,0x200
    2c88:	94 84 00 00 	l.lhz r4,0(r4)
    2c8c:	e4 06 20 00 	l.sfeq r6,r4
    2c90:	10 00 00 12 	l.bf 2cd8 <optimsoc_get_ctrank+0x74>
    2c94:	15 00 00 00 	l.nop 0x0
    2c98:	a8 63 02 02 	l.ori r3,r3,0x202
    2c9c:	00 00 00 06 	l.j 2cb4 <optimsoc_get_ctrank+0x50>
    2ca0:	9d 60 00 00 	l.addi r11,r0,0
    2ca4:	94 83 00 00 	l.lhz r4,0(r3)
    2ca8:	e4 06 20 00 	l.sfeq r6,r4
    2cac:	10 00 00 08 	l.bf 2ccc <optimsoc_get_ctrank+0x68>
    2cb0:	9c 63 00 02 	l.addi r3,r3,2
    2cb4:	84 85 00 00 	l.lwz r4,0(r5)
    2cb8:	9d 6b 00 01 	l.addi r11,r11,1
    2cbc:	e4 8b 20 00 	l.sfltu r11,r4
    2cc0:	13 ff ff f9 	l.bf 2ca4 <optimsoc_get_ctrank+0x40>
    2cc4:	15 00 00 00 	l.nop 0x0
    2cc8:	9d 60 ff ff 	l.addi r11,r0,-1
    2ccc:	9c 21 00 04 	l.addi r1,r1,4
    2cd0:	44 00 48 00 	l.jr r9
    2cd4:	84 21 ff fc 	l.lwz r1,-4(r1)
    2cd8:	03 ff ff fd 	l.j 2ccc <optimsoc_get_ctrank+0x68>
    2cdc:	9d 60 00 00 	l.addi r11,r0,0

00002ce0 <optimsoc_get_tilerank>:
    2ce0:	18 80 e0 00 	l.movhi r4,0xe000
    2ce4:	d7 e1 0f fc 	l.sw -4(r1),r1
    2ce8:	a8 c4 00 28 	l.ori r6,r4,0x28
    2cec:	9c 21 ff fc 	l.addi r1,r1,-4
    2cf0:	84 a6 00 00 	l.lwz r5,0(r6)
    2cf4:	bc 05 00 00 	l.sfeqi r5,0
    2cf8:	10 00 00 12 	l.bf 2d40 <optimsoc_get_tilerank+0x60>
    2cfc:	a8 a4 02 00 	l.ori r5,r4,0x200
    2d00:	94 a5 00 00 	l.lhz r5,0(r5)
    2d04:	e4 03 28 00 	l.sfeq r3,r5
    2d08:	10 00 00 12 	l.bf 2d50 <optimsoc_get_tilerank+0x70>
    2d0c:	15 00 00 00 	l.nop 0x0
    2d10:	a8 84 02 02 	l.ori r4,r4,0x202
    2d14:	00 00 00 06 	l.j 2d2c <optimsoc_get_tilerank+0x4c>
    2d18:	9d 60 00 00 	l.addi r11,r0,0
    2d1c:	94 a4 00 00 	l.lhz r5,0(r4)
    2d20:	e4 05 18 00 	l.sfeq r5,r3
    2d24:	10 00 00 08 	l.bf 2d44 <optimsoc_get_tilerank+0x64>
    2d28:	9c 84 00 02 	l.addi r4,r4,2
    2d2c:	84 a6 00 00 	l.lwz r5,0(r6)
    2d30:	9d 6b 00 01 	l.addi r11,r11,1
    2d34:	e4 8b 28 00 	l.sfltu r11,r5
    2d38:	13 ff ff f9 	l.bf 2d1c <optimsoc_get_tilerank+0x3c>
    2d3c:	15 00 00 00 	l.nop 0x0
    2d40:	9d 60 ff ff 	l.addi r11,r0,-1
    2d44:	9c 21 00 04 	l.addi r1,r1,4
    2d48:	44 00 48 00 	l.jr r9
    2d4c:	84 21 ff fc 	l.lwz r1,-4(r1)
    2d50:	03 ff ff fd 	l.j 2d44 <optimsoc_get_tilerank+0x64>
    2d54:	9d 60 00 00 	l.addi r11,r0,0

00002d58 <optimsoc_get_ranktile>:
    2d58:	d7 e1 17 fc 	l.sw -4(r1),r2
    2d5c:	18 40 e0 00 	l.movhi r2,0xe000
    2d60:	e0 63 18 00 	l.add r3,r3,r3
    2d64:	a8 42 02 00 	l.ori r2,r2,0x200
    2d68:	d7 e1 0f f8 	l.sw -8(r1),r1
    2d6c:	e0 63 10 00 	l.add r3,r3,r2
    2d70:	9c 21 ff f8 	l.addi r1,r1,-8
    2d74:	95 63 00 00 	l.lhz r11,0(r3)
    2d78:	9c 21 00 08 	l.addi r1,r1,8
    2d7c:	84 21 ff f8 	l.lwz r1,-8(r1)
    2d80:	44 00 48 00 	l.jr r9
    2d84:	84 41 ff fc 	l.lwz r2,-4(r1)

00002d88 <optimsoc_init>:
    2d88:	d7 e1 0f fc 	l.sw -4(r1),r1
    2d8c:	9c 21 ff fc 	l.addi r1,r1,-4
    2d90:	9c 21 00 04 	l.addi r1,r1,4
    2d94:	44 00 48 00 	l.jr r9
    2d98:	84 21 ff fc 	l.lwz r1,-4(r1)

00002d9c <optimsoc_mainmem_size>:
    2d9c:	18 60 e0 00 	l.movhi r3,0xe000
    2da0:	d7 e1 0f fc 	l.sw -4(r1),r1
    2da4:	a8 63 00 1c 	l.ori r3,r3,0x1c
    2da8:	9c 21 ff fc 	l.addi r1,r1,-4
    2dac:	85 63 00 00 	l.lwz r11,0(r3)
    2db0:	9c 21 00 04 	l.addi r1,r1,4
    2db4:	44 00 48 00 	l.jr r9
    2db8:	84 21 ff fc 	l.lwz r1,-4(r1)

00002dbc <optimsoc_mainmem_tile>:
    2dbc:	18 60 e0 00 	l.movhi r3,0xe000
    2dc0:	d7 e1 0f fc 	l.sw -4(r1),r1
    2dc4:	a8 63 00 20 	l.ori r3,r3,0x20
    2dc8:	9c 21 ff fc 	l.addi r1,r1,-4
    2dcc:	85 63 00 00 	l.lwz r11,0(r3)
    2dd0:	9c 21 00 04 	l.addi r1,r1,4
    2dd4:	44 00 48 00 	l.jr r9
    2dd8:	84 21 ff fc 	l.lwz r1,-4(r1)

00002ddc <optimsoc_noc_maxpacketsize>:
    2ddc:	d7 e1 0f fc 	l.sw -4(r1),r1
    2de0:	9c 21 ff fc 	l.addi r1,r1,-4
    2de4:	9d 60 00 20 	l.addi r11,r0,32
    2de8:	9c 21 00 04 	l.addi r1,r1,4
    2dec:	44 00 48 00 	l.jr r9
    2df0:	84 21 ff fc 	l.lwz r1,-4(r1)

00002df4 <optimsoc_trace_definesection>:
    2df4:	d7 e1 0f fc 	l.sw -4(r1),r1
    2df8:	a8 a3 00 00 	l.ori r5,r3,0x0
    2dfc:	9c 21 ff fc 	l.addi r1,r1,-4
    2e00:	9c 65 00 00 	l.addi r3,r5,0
    2e04:	15 00 00 20 	l.nop 0x20
    2e08:	90 a4 00 00 	l.lbs r5,0(r4)
    2e0c:	bc 05 00 00 	l.sfeqi r5,0
    2e10:	10 00 00 09 	l.bf 2e34 <optimsoc_trace_definesection+0x40>
    2e14:	15 00 00 00 	l.nop 0x0
    2e18:	9c 65 00 00 	l.addi r3,r5,0
    2e1c:	15 00 00 21 	l.nop 0x21
    2e20:	9c 84 00 01 	l.addi r4,r4,1
    2e24:	90 a4 00 00 	l.lbs r5,0(r4)
    2e28:	bc 25 00 00 	l.sfnei r5,0
    2e2c:	13 ff ff fb 	l.bf 2e18 <optimsoc_trace_definesection+0x24>
    2e30:	15 00 00 00 	l.nop 0x0
    2e34:	9c 21 00 04 	l.addi r1,r1,4
    2e38:	44 00 48 00 	l.jr r9
    2e3c:	84 21 ff fc 	l.lwz r1,-4(r1)

00002e40 <optimsoc_trace_defineglobalsection>:
    2e40:	d7 e1 0f fc 	l.sw -4(r1),r1
    2e44:	9c 21 ff fc 	l.addi r1,r1,-4
    2e48:	9c 21 00 04 	l.addi r1,r1,4
    2e4c:	44 00 48 00 	l.jr r9
    2e50:	84 21 ff fc 	l.lwz r1,-4(r1)

00002e54 <optimsoc_trace_section>:
    2e54:	d7 e1 0f fc 	l.sw -4(r1),r1
    2e58:	a8 83 00 00 	l.ori r4,r3,0x0
    2e5c:	9c 21 ff fc 	l.addi r1,r1,-4
    2e60:	9c 64 00 00 	l.addi r3,r4,0
    2e64:	15 00 00 22 	l.nop 0x22
    2e68:	9c 21 00 04 	l.addi r1,r1,4
    2e6c:	44 00 48 00 	l.jr r9
    2e70:	84 21 ff fc 	l.lwz r1,-4(r1)

00002e74 <optimsoc_trace_kernelsection>:
    2e74:	d7 e1 0f fc 	l.sw -4(r1),r1
    2e78:	9c 80 00 00 	l.addi r4,r0,0
    2e7c:	9c 21 ff fc 	l.addi r1,r1,-4
    2e80:	9c 64 00 00 	l.addi r3,r4,0
    2e84:	15 00 00 23 	l.nop 0x23
    2e88:	9c 21 00 04 	l.addi r1,r1,4
    2e8c:	44 00 48 00 	l.jr r9
    2e90:	84 21 ff fc 	l.lwz r1,-4(r1)

00002e94 <optimsoc_mutex_init>:
    2e94:	d7 e1 17 fc 	l.sw -4(r1),r2
    2e98:	d7 e1 0f f8 	l.sw -8(r1),r1
    2e9c:	9c 21 ff f8 	l.addi r1,r1,-8
    2ea0:	9c 40 00 00 	l.addi r2,r0,0
    2ea4:	9c 21 00 08 	l.addi r1,r1,8
    2ea8:	d4 03 10 00 	l.sw 0(r3),r2
    2eac:	84 21 ff f8 	l.lwz r1,-8(r1)
    2eb0:	44 00 48 00 	l.jr r9
    2eb4:	84 41 ff fc 	l.lwz r2,-4(r1)

00002eb8 <optimsoc_mutex_lock>:
    2eb8:	d7 e1 17 f8 	l.sw -8(r1),r2
    2ebc:	d7 e1 4f fc 	l.sw -4(r1),r9
    2ec0:	d7 e1 0f f4 	l.sw -12(r1),r1
    2ec4:	a8 43 00 00 	l.ori r2,r3,0x0
    2ec8:	9c 21 ff f4 	l.addi r1,r1,-12
    2ecc:	04 00 30 2e 	l.jal ef84 <or1k_sync_tsl>
    2ed0:	a8 62 00 00 	l.ori r3,r2,0x0
    2ed4:	bc 2b 00 00 	l.sfnei r11,0
    2ed8:	13 ff ff fd 	l.bf 2ecc <optimsoc_mutex_lock+0x14>
    2edc:	15 00 00 00 	l.nop 0x0
    2ee0:	9c 21 00 0c 	l.addi r1,r1,12
    2ee4:	85 21 ff fc 	l.lwz r9,-4(r1)
    2ee8:	84 21 ff f4 	l.lwz r1,-12(r1)
    2eec:	44 00 48 00 	l.jr r9
    2ef0:	84 41 ff f8 	l.lwz r2,-8(r1)

00002ef4 <optimsoc_mutex_unlock>:
    2ef4:	d7 e1 17 fc 	l.sw -4(r1),r2
    2ef8:	d7 e1 0f f8 	l.sw -8(r1),r1
    2efc:	9c 21 ff f8 	l.addi r1,r1,-8
    2f00:	9c 40 00 00 	l.addi r2,r0,0
    2f04:	9c 21 00 08 	l.addi r1,r1,8
    2f08:	d4 03 10 00 	l.sw 0(r3),r2
    2f0c:	84 21 ff f8 	l.lwz r1,-8(r1)
    2f10:	44 00 48 00 	l.jr r9
    2f14:	84 41 ff fc 	l.lwz r2,-4(r1)

00002f18 <optimsoc_get_seed>:
    2f18:	18 60 e0 00 	l.movhi r3,0xe000
    2f1c:	d7 e1 0f fc 	l.sw -4(r1),r1
    2f20:	a8 63 00 2c 	l.ori r3,r3,0x2c
    2f24:	9c 21 ff fc 	l.addi r1,r1,-4
    2f28:	85 63 00 00 	l.lwz r11,0(r3)
    2f2c:	9c 21 00 04 	l.addi r1,r1,4
    2f30:	44 00 48 00 	l.jr r9
    2f34:	84 21 ff fc 	l.lwz r1,-4(r1)

00002f38 <__assert_func>:
    2f38:	d7 e1 17 f4 	l.sw -12(r1),r2
    2f3c:	d7 e1 77 f8 	l.sw -8(r1),r14
    2f40:	d7 e1 4f fc 	l.sw -4(r1),r9
    2f44:	d7 e1 0f f0 	l.sw -16(r1),r1
    2f48:	9c 21 ff d4 	l.addi r1,r1,-44
    2f4c:	a8 43 00 00 	l.ori r2,r3,0x0
    2f50:	d4 01 28 18 	l.sw 24(r1),r5
    2f54:	d4 01 30 14 	l.sw 20(r1),r6
    2f58:	04 00 00 9c 	l.jal 31c8 <__getreent>
    2f5c:	a9 c4 00 00 	l.ori r14,r4,0x0
    2f60:	84 a1 00 18 	l.lwz r5,24(r1)
    2f64:	84 6b 00 0c 	l.lwz r3,12(r11)
    2f68:	bc 25 00 00 	l.sfnei r5,0
    2f6c:	0c 00 00 0e 	l.bnf 2fa4 <__assert_func+0x6c>
    2f70:	84 c1 00 14 	l.lwz r6,20(r1)
    2f74:	18 e0 00 01 	l.movhi r7,0x1
    2f78:	a8 e7 28 d0 	l.ori r7,r7,0x28d0
    2f7c:	18 80 00 01 	l.movhi r4,0x1
    2f80:	d4 01 28 10 	l.sw 16(r1),r5
    2f84:	a8 84 28 dd 	l.ori r4,r4,0x28dd
    2f88:	d4 01 38 0c 	l.sw 12(r1),r7
    2f8c:	d4 01 30 00 	l.sw 0(r1),r6
    2f90:	d4 01 70 08 	l.sw 8(r1),r14
    2f94:	04 00 00 7c 	l.jal 3184 <fiprintf>
    2f98:	d4 01 10 04 	l.sw 4(r1),r2
    2f9c:	04 00 12 fb 	l.jal 7b88 <abort>
    2fa0:	15 00 00 00 	l.nop 0x0
    2fa4:	18 e0 00 01 	l.movhi r7,0x1
    2fa8:	a8 e7 29 0b 	l.ori r7,r7,0x290b
    2fac:	03 ff ff f4 	l.j 2f7c <__assert_func+0x44>
    2fb0:	a8 a7 00 00 	l.ori r5,r7,0x0

00002fb4 <__assert>:
    2fb4:	d7 e1 4f fc 	l.sw -4(r1),r9
    2fb8:	d7 e1 0f f8 	l.sw -8(r1),r1
    2fbc:	a8 c5 00 00 	l.ori r6,r5,0x0
    2fc0:	9c 21 ff f8 	l.addi r1,r1,-8
    2fc4:	07 ff ff dd 	l.jal 2f38 <__assert_func>
    2fc8:	9c a0 00 00 	l.addi r5,r0,0

00002fcc <atexit>:
    2fcc:	9c c0 00 00 	l.addi r6,r0,0
    2fd0:	d7 e1 4f fc 	l.sw -4(r1),r9
    2fd4:	d7 e1 0f f8 	l.sw -8(r1),r1
    2fd8:	a8 83 00 00 	l.ori r4,r3,0x0
    2fdc:	9c 21 ff f8 	l.addi r1,r1,-8
    2fe0:	a8 a6 00 00 	l.ori r5,r6,0x0
    2fe4:	04 00 12 f0 	l.jal 7ba4 <__register_exitproc>
    2fe8:	a8 66 00 00 	l.ori r3,r6,0x0
    2fec:	9c 21 00 08 	l.addi r1,r1,8
    2ff0:	85 21 ff fc 	l.lwz r9,-4(r1)
    2ff4:	44 00 48 00 	l.jr r9
    2ff8:	84 21 ff f8 	l.lwz r1,-8(r1)

00002ffc <calloc>:
    2ffc:	d7 e1 4f fc 	l.sw -4(r1),r9
    3000:	d7 e1 0f f8 	l.sw -8(r1),r1
    3004:	9c 21 ff f0 	l.addi r1,r1,-16
    3008:	d4 01 18 04 	l.sw 4(r1),r3
    300c:	04 00 00 6f 	l.jal 31c8 <__getreent>
    3010:	d4 01 20 00 	l.sw 0(r1),r4
    3014:	84 81 00 00 	l.lwz r4,0(r1)
    3018:	84 61 00 04 	l.lwz r3,4(r1)
    301c:	a8 a4 00 00 	l.ori r5,r4,0x0
    3020:	a8 83 00 00 	l.ori r4,r3,0x0
    3024:	04 00 00 06 	l.jal 303c <_calloc_r>
    3028:	a8 6b 00 00 	l.ori r3,r11,0x0
    302c:	9c 21 00 10 	l.addi r1,r1,16
    3030:	85 21 ff fc 	l.lwz r9,-4(r1)
    3034:	44 00 48 00 	l.jr r9
    3038:	84 21 ff f8 	l.lwz r1,-8(r1)

0000303c <_calloc_r>:
    303c:	e0 84 2b 06 	l.mul r4,r4,r5
    3040:	d7 e1 17 f8 	l.sw -8(r1),r2
    3044:	d7 e1 4f fc 	l.sw -4(r1),r9
    3048:	d7 e1 0f f4 	l.sw -12(r1),r1
    304c:	04 00 00 7b 	l.jal 3238 <_malloc_r>
    3050:	9c 21 ff f4 	l.addi r1,r1,-12
    3054:	bc 0b 00 00 	l.sfeqi r11,0
    3058:	10 00 00 1d 	l.bf 30cc <_calloc_r+0x90>
    305c:	a8 4b 00 00 	l.ori r2,r11,0x0
    3060:	9c 60 ff fc 	l.addi r3,r0,-4
    3064:	84 ab ff fc 	l.lwz r5,-4(r11)
    3068:	e0 a5 18 03 	l.and r5,r5,r3
    306c:	e0 a5 18 00 	l.add r5,r5,r3
    3070:	bc 45 00 24 	l.sfgtui r5,36
    3074:	10 00 00 1c 	l.bf 30e4 <_calloc_r+0xa8>
    3078:	bc a5 00 13 	l.sfleui r5,19
    307c:	10 00 00 10 	l.bf 30bc <_calloc_r+0x80>
    3080:	a8 6b 00 00 	l.ori r3,r11,0x0
    3084:	9c 80 00 00 	l.addi r4,r0,0
    3088:	bc 45 00 1b 	l.sfgtui r5,27
    308c:	d4 0b 20 00 	l.sw 0(r11),r4
    3090:	0c 00 00 20 	l.bnf 3110 <_calloc_r+0xd4>
    3094:	d4 0b 20 04 	l.sw 4(r11),r4
    3098:	9c 60 00 00 	l.addi r3,r0,0
    309c:	bc 05 00 24 	l.sfeqi r5,36
    30a0:	d4 0b 18 08 	l.sw 8(r11),r3
    30a4:	0c 00 00 19 	l.bnf 3108 <_calloc_r+0xcc>
    30a8:	d4 0b 18 0c 	l.sw 12(r11),r3
    30ac:	9c 80 00 00 	l.addi r4,r0,0
    30b0:	9c 6b 00 18 	l.addi r3,r11,24
    30b4:	d4 0b 20 10 	l.sw 16(r11),r4
    30b8:	d4 0b 20 14 	l.sw 20(r11),r4
    30bc:	9c 80 00 00 	l.addi r4,r0,0
    30c0:	d4 03 20 00 	l.sw 0(r3),r4
    30c4:	d4 03 20 04 	l.sw 4(r3),r4
    30c8:	d4 03 20 08 	l.sw 8(r3),r4
    30cc:	9c 21 00 0c 	l.addi r1,r1,12
    30d0:	a9 62 00 00 	l.ori r11,r2,0x0
    30d4:	85 21 ff fc 	l.lwz r9,-4(r1)
    30d8:	84 21 ff f4 	l.lwz r1,-12(r1)
    30dc:	44 00 48 00 	l.jr r9
    30e0:	84 41 ff f8 	l.lwz r2,-8(r1)
    30e4:	9c 80 00 00 	l.addi r4,r0,0
    30e8:	04 00 02 cf 	l.jal 3c24 <memset>
    30ec:	a8 6b 00 00 	l.ori r3,r11,0x0
    30f0:	9c 21 00 0c 	l.addi r1,r1,12
    30f4:	a9 62 00 00 	l.ori r11,r2,0x0
    30f8:	85 21 ff fc 	l.lwz r9,-4(r1)
    30fc:	84 21 ff f4 	l.lwz r1,-12(r1)
    3100:	44 00 48 00 	l.jr r9
    3104:	84 41 ff f8 	l.lwz r2,-8(r1)
    3108:	03 ff ff ed 	l.j 30bc <_calloc_r+0x80>
    310c:	9c 6b 00 10 	l.addi r3,r11,16
    3110:	03 ff ff eb 	l.j 30bc <_calloc_r+0x80>
    3114:	9c 6b 00 08 	l.addi r3,r11,8

00003118 <exit>:
    3118:	d7 e1 17 f8 	l.sw -8(r1),r2
    311c:	d7 e1 4f fc 	l.sw -4(r1),r9
    3120:	d7 e1 0f f4 	l.sw -12(r1),r1
    3124:	9c 80 00 00 	l.addi r4,r0,0
    3128:	9c 21 ff f4 	l.addi r1,r1,-12
    312c:	04 00 12 ea 	l.jal 7cd4 <__call_exitprocs>
    3130:	a8 43 00 00 	l.ori r2,r3,0x0
    3134:	18 60 00 01 	l.movhi r3,0x1
    3138:	a8 63 29 0c 	l.ori r3,r3,0x290c
    313c:	84 63 00 00 	l.lwz r3,0(r3)
    3140:	84 83 00 3c 	l.lwz r4,60(r3)
    3144:	bc 04 00 00 	l.sfeqi r4,0
    3148:	10 00 00 04 	l.bf 3158 <exit+0x40>
    314c:	15 00 00 00 	l.nop 0x0
    3150:	48 00 20 00 	l.jalr r4
    3154:	15 00 00 00 	l.nop 0x0
    3158:	04 00 2c 7f 	l.jal e354 <_exit>
    315c:	a8 62 00 00 	l.ori r3,r2,0x0

00003160 <_fiprintf_r>:
    3160:	d7 e1 4f fc 	l.sw -4(r1),r9
    3164:	d7 e1 0f f8 	l.sw -8(r1),r1
    3168:	9c 21 ff f8 	l.addi r1,r1,-8
    316c:	04 00 03 bb 	l.jal 4058 <_vfiprintf_r>
    3170:	9c c1 00 08 	l.addi r6,r1,8
    3174:	9c 21 00 08 	l.addi r1,r1,8
    3178:	85 21 ff fc 	l.lwz r9,-4(r1)
    317c:	44 00 48 00 	l.jr r9
    3180:	84 21 ff f8 	l.lwz r1,-8(r1)

00003184 <fiprintf>:
    3184:	d7 e1 4f fc 	l.sw -4(r1),r9
    3188:	d7 e1 0f f8 	l.sw -8(r1),r1
    318c:	9c 21 ff f0 	l.addi r1,r1,-16
    3190:	d4 01 18 04 	l.sw 4(r1),r3
    3194:	04 00 00 0d 	l.jal 31c8 <__getreent>
    3198:	d4 01 20 00 	l.sw 0(r1),r4
    319c:	84 81 00 00 	l.lwz r4,0(r1)
    31a0:	84 61 00 04 	l.lwz r3,4(r1)
    31a4:	9c c1 00 10 	l.addi r6,r1,16
    31a8:	a8 a4 00 00 	l.ori r5,r4,0x0
    31ac:	a8 83 00 00 	l.ori r4,r3,0x0
    31b0:	04 00 03 aa 	l.jal 4058 <_vfiprintf_r>
    31b4:	a8 6b 00 00 	l.ori r3,r11,0x0
    31b8:	9c 21 00 10 	l.addi r1,r1,16
    31bc:	85 21 ff fc 	l.lwz r9,-4(r1)
    31c0:	44 00 48 00 	l.jr r9
    31c4:	84 21 ff f8 	l.lwz r1,-8(r1)

000031c8 <__getreent>:
    31c8:	00 00 2f 21 	l.j ee4c <_or1k_libc_getreent>
    31cc:	15 00 00 00 	l.nop 0x0

000031d0 <malloc>:
    31d0:	d7 e1 4f fc 	l.sw -4(r1),r9
    31d4:	d7 e1 0f f8 	l.sw -8(r1),r1
    31d8:	9c 21 ff f4 	l.addi r1,r1,-12
    31dc:	07 ff ff fb 	l.jal 31c8 <__getreent>
    31e0:	d4 01 18 00 	l.sw 0(r1),r3
    31e4:	84 61 00 00 	l.lwz r3,0(r1)
    31e8:	a8 83 00 00 	l.ori r4,r3,0x0
    31ec:	04 00 00 13 	l.jal 3238 <_malloc_r>
    31f0:	a8 6b 00 00 	l.ori r3,r11,0x0
    31f4:	9c 21 00 0c 	l.addi r1,r1,12
    31f8:	85 21 ff fc 	l.lwz r9,-4(r1)
    31fc:	44 00 48 00 	l.jr r9
    3200:	84 21 ff f8 	l.lwz r1,-8(r1)

00003204 <free>:
    3204:	d7 e1 4f fc 	l.sw -4(r1),r9
    3208:	d7 e1 0f f8 	l.sw -8(r1),r1
    320c:	9c 21 ff f4 	l.addi r1,r1,-12
    3210:	07 ff ff ee 	l.jal 31c8 <__getreent>
    3214:	d4 01 18 00 	l.sw 0(r1),r3
    3218:	84 61 00 00 	l.lwz r3,0(r1)
    321c:	a8 83 00 00 	l.ori r4,r3,0x0
    3220:	04 00 1d c8 	l.jal a940 <_free_r>
    3224:	a8 6b 00 00 	l.ori r3,r11,0x0
    3228:	9c 21 00 0c 	l.addi r1,r1,12
    322c:	85 21 ff fc 	l.lwz r9,-4(r1)
    3230:	44 00 48 00 	l.jr r9
    3234:	84 21 ff f8 	l.lwz r1,-8(r1)

00003238 <_malloc_r>:
    3238:	d7 e1 77 dc 	l.sw -36(r1),r14
    323c:	9d c4 00 0b 	l.addi r14,r4,11
    3240:	d7 e1 97 e0 	l.sw -32(r1),r18
    3244:	d7 e1 4f fc 	l.sw -4(r1),r9
    3248:	d7 e1 0f d4 	l.sw -44(r1),r1
    324c:	d7 e1 17 d8 	l.sw -40(r1),r2
    3250:	d7 e1 a7 e4 	l.sw -28(r1),r20
    3254:	d7 e1 b7 e8 	l.sw -24(r1),r22
    3258:	d7 e1 c7 ec 	l.sw -20(r1),r24
    325c:	d7 e1 d7 f0 	l.sw -16(r1),r26
    3260:	d7 e1 e7 f4 	l.sw -12(r1),r28
    3264:	d7 e1 f7 f8 	l.sw -8(r1),r30
    3268:	bc ae 00 16 	l.sfleui r14,22
    326c:	9c 21 ff d4 	l.addi r1,r1,-44
    3270:	10 00 00 a3 	l.bf 34fc <_malloc_r+0x2c4>
    3274:	aa 43 00 00 	l.ori r18,r3,0x0
    3278:	9c 40 ff f8 	l.addi r2,r0,-8
    327c:	e1 ce 10 03 	l.and r14,r14,r2
    3280:	b8 6e 00 5f 	l.srli r3,r14,0x1f
    3284:	bc 23 00 00 	l.sfnei r3,0
    3288:	10 00 00 c8 	l.bf 35a8 <_malloc_r+0x370>
    328c:	e4 44 70 00 	l.sfgtu r4,r14
    3290:	10 00 00 03 	l.bf 329c <_malloc_r+0x64>
    3294:	9c 40 00 01 	l.addi r2,r0,1
    3298:	a8 43 00 00 	l.ori r2,r3,0x0
    329c:	a4 42 00 ff 	l.andi r2,r2,0xff
    32a0:	bc 02 00 00 	l.sfeqi r2,0
    32a4:	0c 00 00 c2 	l.bnf 35ac <_malloc_r+0x374>
    32a8:	9c 40 00 0c 	l.addi r2,r0,12
    32ac:	04 00 02 b8 	l.jal 3d8c <__malloc_lock>
    32b0:	a8 72 00 00 	l.ori r3,r18,0x0
    32b4:	bc 4e 01 f7 	l.sfgtui r14,503
    32b8:	0c 00 02 57 	l.bnf 3c14 <_malloc_r+0x9dc>
    32bc:	b8 4e 00 49 	l.srli r2,r14,0x9
    32c0:	bc 02 00 00 	l.sfeqi r2,0
    32c4:	10 00 00 bd 	l.bf 35b8 <_malloc_r+0x380>
    32c8:	9c e0 00 40 	l.addi r7,r0,64
    32cc:	bc 42 00 04 	l.sfgtui r2,4
    32d0:	10 00 00 f0 	l.bf 3690 <_malloc_r+0x458>
    32d4:	bc 42 00 14 	l.sfgtui r2,20
    32d8:	b8 4e 00 46 	l.srli r2,r14,0x6
    32dc:	9c e2 00 39 	l.addi r7,r2,57
    32e0:	9c c2 00 38 	l.addi r6,r2,56
    32e4:	e0 47 38 00 	l.add r2,r7,r7
    32e8:	19 00 00 01 	l.movhi r8,0x1
    32ec:	b8 42 00 02 	l.slli r2,r2,0x2
    32f0:	a9 08 54 50 	l.ori r8,r8,0x5450
    32f4:	e0 42 40 00 	l.add r2,r2,r8
    32f8:	9c a2 ff f8 	l.addi r5,r2,-8
    32fc:	84 42 00 04 	l.lwz r2,4(r2)
    3300:	e4 05 10 00 	l.sfeq r5,r2
    3304:	10 00 00 18 	l.bf 3364 <_malloc_r+0x12c>
    3308:	9c 80 ff fc 	l.addi r4,r0,-4
    330c:	84 62 00 04 	l.lwz r3,4(r2)
    3310:	e0 63 20 03 	l.and r3,r3,r4
    3314:	e0 83 70 02 	l.sub r4,r3,r14
    3318:	bd 44 00 0f 	l.sfgtsi r4,15
    331c:	10 00 00 aa 	l.bf 35c4 <_malloc_r+0x38c>
    3320:	bd 64 00 00 	l.sfgesi r4,0
    3324:	0c 00 00 0c 	l.bnf 3354 <_malloc_r+0x11c>
    3328:	15 00 00 00 	l.nop 0x0
    332c:	00 00 00 a9 	l.j 35d0 <_malloc_r+0x398>
    3330:	e0 62 18 00 	l.add r3,r2,r3
    3334:	84 62 00 04 	l.lwz r3,4(r2)
    3338:	e0 63 40 03 	l.and r3,r3,r8
    333c:	e0 83 70 02 	l.sub r4,r3,r14
    3340:	bd a4 00 0f 	l.sflesi r4,15
    3344:	0c 00 00 a0 	l.bnf 35c4 <_malloc_r+0x38c>
    3348:	bd 84 00 00 	l.sfltsi r4,0
    334c:	0c 00 00 a0 	l.bnf 35cc <_malloc_r+0x394>
    3350:	15 00 00 00 	l.nop 0x0
    3354:	84 42 00 0c 	l.lwz r2,12(r2)
    3358:	e4 25 10 00 	l.sfne r5,r2
    335c:	13 ff ff f6 	l.bf 3334 <_malloc_r+0xfc>
    3360:	9d 00 ff fc 	l.addi r8,r0,-4
    3364:	a8 a7 00 00 	l.ori r5,r7,0x0
    3368:	1a 80 00 01 	l.movhi r20,0x1
    336c:	aa 94 54 50 	l.ori r20,r20,0x5450
    3370:	84 54 00 10 	l.lwz r2,16(r20)
    3374:	9d 74 00 08 	l.addi r11,r20,8
    3378:	e4 22 58 00 	l.sfne r2,r11
    337c:	0c 00 01 3a 	l.bnf 3864 <_malloc_r+0x62c>
    3380:	9c 80 ff fc 	l.addi r4,r0,-4
    3384:	84 62 00 04 	l.lwz r3,4(r2)
    3388:	e0 63 20 03 	l.and r3,r3,r4
    338c:	e0 83 70 02 	l.sub r4,r3,r14
    3390:	bd a4 00 0f 	l.sflesi r4,15
    3394:	0c 00 00 eb 	l.bnf 3740 <_malloc_r+0x508>
    3398:	bd 84 00 00 	l.sfltsi r4,0
    339c:	d4 14 58 14 	l.sw 20(r20),r11
    33a0:	0c 00 00 97 	l.bnf 35fc <_malloc_r+0x3c4>
    33a4:	d4 14 58 10 	l.sw 16(r20),r11
    33a8:	bc 43 01 ff 	l.sfgtui r3,511
    33ac:	10 00 00 c3 	l.bf 36b8 <_malloc_r+0x480>
    33b0:	b8 c3 00 49 	l.srli r6,r3,0x9
    33b4:	b8 63 00 43 	l.srli r3,r3,0x3
    33b8:	9c e0 00 01 	l.addi r7,r0,1
    33bc:	84 94 00 04 	l.lwz r4,4(r20)
    33c0:	b8 c3 00 03 	l.slli r6,r3,0x3
    33c4:	b8 63 00 82 	l.srai r3,r3,0x2
    33c8:	9c c6 00 08 	l.addi r6,r6,8
    33cc:	e0 67 18 08 	l.sll r3,r7,r3
    33d0:	18 e0 00 01 	l.movhi r7,0x1
    33d4:	a8 e7 54 50 	l.ori r7,r7,0x5450
    33d8:	e0 63 20 04 	l.or r3,r3,r4
    33dc:	e0 c6 38 00 	l.add r6,r6,r7
    33e0:	84 86 00 00 	l.lwz r4,0(r6)
    33e4:	9c e6 ff f8 	l.addi r7,r6,-8
    33e8:	d4 02 20 08 	l.sw 8(r2),r4
    33ec:	d4 02 38 0c 	l.sw 12(r2),r7
    33f0:	d4 14 18 04 	l.sw 4(r20),r3
    33f4:	d4 06 10 00 	l.sw 0(r6),r2
    33f8:	d4 04 10 0c 	l.sw 12(r4),r2
    33fc:	b8 45 00 82 	l.srai r2,r5,0x2
    3400:	9c c0 00 01 	l.addi r6,r0,1
    3404:	e0 c6 10 08 	l.sll r6,r6,r2
    3408:	e4 46 18 00 	l.sfgtu r6,r3
    340c:	10 00 00 84 	l.bf 361c <_malloc_r+0x3e4>
    3410:	e0 46 18 03 	l.and r2,r6,r3
    3414:	bc 22 00 00 	l.sfnei r2,0
    3418:	10 00 00 0f 	l.bf 3454 <_malloc_r+0x21c>
    341c:	b9 05 00 03 	l.slli r8,r5,0x3
    3420:	9c 40 ff fc 	l.addi r2,r0,-4
    3424:	e0 c6 30 00 	l.add r6,r6,r6
    3428:	e0 a5 10 03 	l.and r5,r5,r2
    342c:	e0 46 18 03 	l.and r2,r6,r3
    3430:	bc 22 00 00 	l.sfnei r2,0
    3434:	10 00 00 07 	l.bf 3450 <_malloc_r+0x218>
    3438:	9c a5 00 04 	l.addi r5,r5,4
    343c:	e0 c6 30 00 	l.add r6,r6,r6
    3440:	e0 46 18 03 	l.and r2,r6,r3
    3444:	bc 02 00 00 	l.sfeqi r2,0
    3448:	13 ff ff fd 	l.bf 343c <_malloc_r+0x204>
    344c:	9c a5 00 04 	l.addi r5,r5,4
    3450:	b9 05 00 03 	l.slli r8,r5,0x3
    3454:	18 60 00 01 	l.movhi r3,0x1
    3458:	a9 a5 00 00 	l.ori r13,r5,0x0
    345c:	9d 08 00 08 	l.addi r8,r8,8
    3460:	a8 63 54 50 	l.ori r3,r3,0x5450
    3464:	e1 08 18 00 	l.add r8,r8,r3
    3468:	9d 88 ff f8 	l.addi r12,r8,-8
    346c:	9d 08 00 04 	l.addi r8,r8,4
    3470:	9c e8 ff f4 	l.addi r7,r8,-12
    3474:	84 48 00 00 	l.lwz r2,0(r8)
    3478:	e4 02 38 00 	l.sfeq r2,r7
    347c:	10 00 00 19 	l.bf 34e0 <_malloc_r+0x2a8>
    3480:	9c 80 ff fc 	l.addi r4,r0,-4
    3484:	84 62 00 04 	l.lwz r3,4(r2)
    3488:	e0 63 20 03 	l.and r3,r3,r4
    348c:	e0 83 70 02 	l.sub r4,r3,r14
    3490:	bd 44 00 0f 	l.sfgtsi r4,15
    3494:	10 00 00 fc 	l.bf 3884 <_malloc_r+0x64c>
    3498:	bd 64 00 00 	l.sfgesi r4,0
    349c:	0c 00 00 0d 	l.bnf 34d0 <_malloc_r+0x298>
    34a0:	e0 82 18 00 	l.add r4,r2,r3
    34a4:	00 00 01 02 	l.j 38ac <_malloc_r+0x674>
    34a8:	84 c2 00 0c 	l.lwz r6,12(r2)
    34ac:	9c 80 ff fc 	l.addi r4,r0,-4
    34b0:	84 62 00 04 	l.lwz r3,4(r2)
    34b4:	e0 63 20 03 	l.and r3,r3,r4
    34b8:	e0 83 70 02 	l.sub r4,r3,r14
    34bc:	bd a4 00 0f 	l.sflesi r4,15
    34c0:	0c 00 00 f1 	l.bnf 3884 <_malloc_r+0x64c>
    34c4:	bd 84 00 00 	l.sfltsi r4,0
    34c8:	0c 00 00 f7 	l.bnf 38a4 <_malloc_r+0x66c>
    34cc:	15 00 00 00 	l.nop 0x0
    34d0:	84 42 00 0c 	l.lwz r2,12(r2)
    34d4:	e4 22 38 00 	l.sfne r2,r7
    34d8:	13 ff ff f5 	l.bf 34ac <_malloc_r+0x274>
    34dc:	15 00 00 00 	l.nop 0x0
    34e0:	9d ad 00 01 	l.addi r13,r13,1
    34e4:	a4 4d 00 03 	l.andi r2,r13,0x3
    34e8:	bc 22 00 00 	l.sfnei r2,0
    34ec:	13 ff ff e1 	l.bf 3470 <_malloc_r+0x238>
    34f0:	9d 08 00 08 	l.addi r8,r8,8
    34f4:	00 00 01 07 	l.j 3910 <_malloc_r+0x6d8>
    34f8:	a4 45 00 03 	l.andi r2,r5,0x3
    34fc:	bc 44 00 10 	l.sfgtui r4,16
    3500:	10 00 00 2b 	l.bf 35ac <_malloc_r+0x374>
    3504:	9c 40 00 0c 	l.addi r2,r0,12
    3508:	04 00 02 21 	l.jal 3d8c <__malloc_lock>
    350c:	9d c0 00 10 	l.addi r14,r0,16
    3510:	9c 60 00 06 	l.addi r3,r0,6
    3514:	9c a0 00 02 	l.addi r5,r0,2
    3518:	18 80 00 01 	l.movhi r4,0x1
    351c:	b8 63 00 02 	l.slli r3,r3,0x2
    3520:	a8 84 54 50 	l.ori r4,r4,0x5450
    3524:	e0 63 20 00 	l.add r3,r3,r4
    3528:	84 43 00 04 	l.lwz r2,4(r3)
    352c:	9c 83 ff f8 	l.addi r4,r3,-8
    3530:	e4 22 20 00 	l.sfne r2,r4
    3534:	0c 00 00 ce 	l.bnf 386c <_malloc_r+0x634>
    3538:	15 00 00 00 	l.nop 0x0
    353c:	84 82 00 04 	l.lwz r4,4(r2)
    3540:	9c a0 ff fc 	l.addi r5,r0,-4
    3544:	84 62 00 0c 	l.lwz r3,12(r2)
    3548:	e0 84 28 03 	l.and r4,r4,r5
    354c:	84 c2 00 08 	l.lwz r6,8(r2)
    3550:	e0 82 20 00 	l.add r4,r2,r4
    3554:	d4 06 18 0c 	l.sw 12(r6),r3
    3558:	84 a4 00 04 	l.lwz r5,4(r4)
    355c:	d4 03 30 08 	l.sw 8(r3),r6
    3560:	a8 a5 00 01 	l.ori r5,r5,0x1
    3564:	a8 72 00 00 	l.ori r3,r18,0x0
    3568:	04 00 02 33 	l.jal 3e34 <__malloc_unlock>
    356c:	d4 04 28 04 	l.sw 4(r4),r5
    3570:	9d 62 00 08 	l.addi r11,r2,8
    3574:	9c 21 00 2c 	l.addi r1,r1,44
    3578:	85 21 ff fc 	l.lwz r9,-4(r1)
    357c:	84 21 ff d4 	l.lwz r1,-44(r1)
    3580:	84 41 ff d8 	l.lwz r2,-40(r1)
    3584:	85 c1 ff dc 	l.lwz r14,-36(r1)
    3588:	86 41 ff e0 	l.lwz r18,-32(r1)
    358c:	86 81 ff e4 	l.lwz r20,-28(r1)
    3590:	86 c1 ff e8 	l.lwz r22,-24(r1)
    3594:	87 01 ff ec 	l.lwz r24,-20(r1)
    3598:	87 41 ff f0 	l.lwz r26,-16(r1)
    359c:	87 81 ff f4 	l.lwz r28,-12(r1)
    35a0:	44 00 48 00 	l.jr r9
    35a4:	87 c1 ff f8 	l.lwz r30,-8(r1)
    35a8:	9c 40 00 0c 	l.addi r2,r0,12
    35ac:	9d 60 00 00 	l.addi r11,r0,0
    35b0:	03 ff ff f1 	l.j 3574 <_malloc_r+0x33c>
    35b4:	d4 12 10 00 	l.sw 0(r18),r2
    35b8:	9c 40 00 80 	l.addi r2,r0,128
    35bc:	03 ff ff 4b 	l.j 32e8 <_malloc_r+0xb0>
    35c0:	9c c0 00 3f 	l.addi r6,r0,63
    35c4:	03 ff ff 69 	l.j 3368 <_malloc_r+0x130>
    35c8:	a8 a6 00 00 	l.ori r5,r6,0x0
    35cc:	e0 62 18 00 	l.add r3,r2,r3
    35d0:	84 a2 00 0c 	l.lwz r5,12(r2)
    35d4:	84 83 00 04 	l.lwz r4,4(r3)
    35d8:	84 c2 00 08 	l.lwz r6,8(r2)
    35dc:	a8 84 00 01 	l.ori r4,r4,0x1
    35e0:	d4 06 28 0c 	l.sw 12(r6),r5
    35e4:	d4 05 30 08 	l.sw 8(r5),r6
    35e8:	d4 03 20 04 	l.sw 4(r3),r4
    35ec:	04 00 02 12 	l.jal 3e34 <__malloc_unlock>
    35f0:	a8 72 00 00 	l.ori r3,r18,0x0
    35f4:	03 ff ff e0 	l.j 3574 <_malloc_r+0x33c>
    35f8:	9d 62 00 08 	l.addi r11,r2,8
    35fc:	e0 82 18 00 	l.add r4,r2,r3
    3600:	a8 72 00 00 	l.ori r3,r18,0x0
    3604:	84 a4 00 04 	l.lwz r5,4(r4)
    3608:	a8 a5 00 01 	l.ori r5,r5,0x1
    360c:	04 00 02 0a 	l.jal 3e34 <__malloc_unlock>
    3610:	d4 04 28 04 	l.sw 4(r4),r5
    3614:	03 ff ff d8 	l.j 3574 <_malloc_r+0x33c>
    3618:	9d 62 00 08 	l.addi r11,r2,8
    361c:	84 54 00 08 	l.lwz r2,8(r20)
    3620:	9c a0 ff fc 	l.addi r5,r0,-4
    3624:	84 62 00 04 	l.lwz r3,4(r2)
    3628:	9c 80 00 01 	l.addi r4,r0,1
    362c:	e3 03 28 03 	l.and r24,r3,r5
    3630:	e4 98 70 00 	l.sfltu r24,r14
    3634:	10 00 00 03 	l.bf 3640 <_malloc_r+0x408>
    3638:	e0 78 70 02 	l.sub r3,r24,r14
    363c:	9c 80 00 00 	l.addi r4,r0,0
    3640:	a4 84 00 ff 	l.andi r4,r4,0xff
    3644:	bc 24 00 00 	l.sfnei r4,0
    3648:	10 00 00 4d 	l.bf 377c <_malloc_r+0x544>
    364c:	bd a3 00 0f 	l.sflesi r3,15
    3650:	0c 00 00 a4 	l.bnf 38e0 <_malloc_r+0x6a8>
    3654:	9c a0 00 01 	l.addi r5,r0,1
    3658:	a4 a5 00 ff 	l.andi r5,r5,0xff
    365c:	bc 05 00 00 	l.sfeqi r5,0
    3660:	0c 00 00 48 	l.bnf 3780 <_malloc_r+0x548>
    3664:	1b 80 00 01 	l.movhi r28,0x1
    3668:	a8 8e 00 01 	l.ori r4,r14,0x1
    366c:	e1 c2 70 00 	l.add r14,r2,r14
    3670:	d4 02 20 04 	l.sw 4(r2),r4
    3674:	a8 63 00 01 	l.ori r3,r3,0x1
    3678:	d4 14 70 08 	l.sw 8(r20),r14
    367c:	d4 0e 18 04 	l.sw 4(r14),r3
    3680:	04 00 01 ed 	l.jal 3e34 <__malloc_unlock>
    3684:	a8 72 00 00 	l.ori r3,r18,0x0
    3688:	03 ff ff bb 	l.j 3574 <_malloc_r+0x33c>
    368c:	9d 62 00 08 	l.addi r11,r2,8
    3690:	0c 00 00 91 	l.bnf 38d4 <_malloc_r+0x69c>
    3694:	9c e2 00 5c 	l.addi r7,r2,92
    3698:	bc 42 00 54 	l.sfgtui r2,84
    369c:	10 00 01 07 	l.bf 3ab8 <_malloc_r+0x880>
    36a0:	bc 42 01 54 	l.sfgtui r2,340
    36a4:	b8 4e 00 4c 	l.srli r2,r14,0xc
    36a8:	9c e2 00 6f 	l.addi r7,r2,111
    36ac:	9c c2 00 6e 	l.addi r6,r2,110
    36b0:	03 ff ff 0e 	l.j 32e8 <_malloc_r+0xb0>
    36b4:	e0 47 38 00 	l.add r2,r7,r7
    36b8:	bc 46 00 04 	l.sfgtui r6,4
    36bc:	0c 00 00 8b 	l.bnf 38e8 <_malloc_r+0x6b0>
    36c0:	bc 46 00 14 	l.sfgtui r6,20
    36c4:	10 00 01 1b 	l.bf 3b30 <_malloc_r+0x8f8>
    36c8:	bc 46 00 54 	l.sfgtui r6,84
    36cc:	9c 86 00 5c 	l.addi r4,r6,92
    36d0:	9c c6 00 5b 	l.addi r6,r6,91
    36d4:	e0 84 20 00 	l.add r4,r4,r4
    36d8:	19 00 00 01 	l.movhi r8,0x1
    36dc:	b8 84 00 02 	l.slli r4,r4,0x2
    36e0:	a9 08 54 50 	l.ori r8,r8,0x5450
    36e4:	e0 84 40 00 	l.add r4,r4,r8
    36e8:	9c e4 ff f8 	l.addi r7,r4,-8
    36ec:	84 84 00 00 	l.lwz r4,0(r4)
    36f0:	e4 27 20 00 	l.sfne r7,r4
    36f4:	0c 00 00 fb 	l.bnf 3ae0 <_malloc_r+0x8a8>
    36f8:	b8 c6 00 82 	l.srai r6,r6,0x2
    36fc:	84 c4 00 04 	l.lwz r6,4(r4)
    3700:	9d 00 ff fc 	l.addi r8,r0,-4
    3704:	e0 c6 40 03 	l.and r6,r6,r8
    3708:	e4 83 30 00 	l.sfltu r3,r6
    370c:	0c 00 00 06 	l.bnf 3724 <_malloc_r+0x4ec>
    3710:	15 00 00 00 	l.nop 0x0
    3714:	84 84 00 08 	l.lwz r4,8(r4)
    3718:	e4 27 20 00 	l.sfne r7,r4
    371c:	13 ff ff f8 	l.bf 36fc <_malloc_r+0x4c4>
    3720:	15 00 00 00 	l.nop 0x0
    3724:	84 e4 00 0c 	l.lwz r7,12(r4)
    3728:	84 74 00 04 	l.lwz r3,4(r20)
    372c:	d4 02 38 0c 	l.sw 12(r2),r7
    3730:	d4 02 20 08 	l.sw 8(r2),r4
    3734:	d4 07 10 08 	l.sw 8(r7),r2
    3738:	03 ff ff 31 	l.j 33fc <_malloc_r+0x1c4>
    373c:	d4 04 10 0c 	l.sw 12(r4),r2
    3740:	a8 6e 00 01 	l.ori r3,r14,0x1
    3744:	e1 c2 70 00 	l.add r14,r2,r14
    3748:	d4 02 18 04 	l.sw 4(r2),r3
    374c:	a8 a4 00 01 	l.ori r5,r4,0x1
    3750:	d4 14 70 14 	l.sw 20(r20),r14
    3754:	d4 14 70 10 	l.sw 16(r20),r14
    3758:	e0 6e 20 00 	l.add r3,r14,r4
    375c:	d4 0e 58 0c 	l.sw 12(r14),r11
    3760:	d4 0e 58 08 	l.sw 8(r14),r11
    3764:	d4 0e 28 04 	l.sw 4(r14),r5
    3768:	d4 03 20 00 	l.sw 0(r3),r4
    376c:	04 00 01 b2 	l.jal 3e34 <__malloc_unlock>
    3770:	a8 72 00 00 	l.ori r3,r18,0x0
    3774:	03 ff ff 80 	l.j 3574 <_malloc_r+0x33c>
    3778:	9d 62 00 08 	l.addi r11,r2,8
    377c:	1b 80 00 01 	l.movhi r28,0x1
    3780:	18 80 00 01 	l.movhi r4,0x1
    3784:	ab 9c 54 48 	l.ori r28,r28,0x5448
    3788:	a8 84 5d 68 	l.ori r4,r4,0x5d68
    378c:	84 7c 00 00 	l.lwz r3,0(r28)
    3790:	86 c4 00 00 	l.lwz r22,0(r4)
    3794:	bc 23 ff ff 	l.sfnei r3,-1
    3798:	0c 00 00 e0 	l.bnf 3b18 <_malloc_r+0x8e0>
    379c:	e2 ce b0 00 	l.add r22,r14,r22
    37a0:	9e d6 10 0f 	l.addi r22,r22,4111
    37a4:	9c c0 f0 00 	l.addi r6,r0,-4096
    37a8:	e2 d6 30 03 	l.and r22,r22,r6
    37ac:	a8 96 00 00 	l.ori r4,r22,0x0
    37b0:	04 00 2d 1b 	l.jal ec1c <_sbrk_r>
    37b4:	a8 72 00 00 	l.ori r3,r18,0x0
    37b8:	bc 2b ff ff 	l.sfnei r11,-1
    37bc:	0c 00 00 e4 	l.bnf 3b4c <_malloc_r+0x914>
    37c0:	ab 4b 00 00 	l.ori r26,r11,0x0
    37c4:	19 00 00 01 	l.movhi r8,0x1
    37c8:	a9 08 54 50 	l.ori r8,r8,0x5450
    37cc:	e0 82 40 05 	l.xor r4,r2,r8
    37d0:	e0 a0 20 02 	l.sub r5,r0,r4
    37d4:	e0 85 20 04 	l.or r4,r5,r4
    37d8:	bd 64 00 00 	l.sfgesi r4,0
    37dc:	10 00 00 6d 	l.bf 3990 <_malloc_r+0x758>
    37e0:	e0 62 c0 00 	l.add r3,r2,r24
    37e4:	e4 43 58 00 	l.sfgtu r3,r11
    37e8:	10 00 00 03 	l.bf 37f4 <_malloc_r+0x5bc>
    37ec:	9c 80 00 01 	l.addi r4,r0,1
    37f0:	9c 80 00 00 	l.addi r4,r0,0
    37f4:	a4 84 00 ff 	l.andi r4,r4,0xff
    37f8:	bc 04 00 00 	l.sfeqi r4,0
    37fc:	10 00 00 66 	l.bf 3994 <_malloc_r+0x75c>
    3800:	1b c0 00 01 	l.movhi r30,0x1
    3804:	84 54 00 08 	l.lwz r2,8(r20)
    3808:	9c 60 ff fc 	l.addi r3,r0,-4
    380c:	84 a2 00 04 	l.lwz r5,4(r2)
    3810:	e0 a5 18 03 	l.and r5,r5,r3
    3814:	e0 65 70 02 	l.sub r3,r5,r14
    3818:	bd a3 00 0f 	l.sflesi r3,15
    381c:	10 00 00 03 	l.bf 3828 <_malloc_r+0x5f0>
    3820:	9c 80 00 01 	l.addi r4,r0,1
    3824:	9c 80 00 00 	l.addi r4,r0,0
    3828:	a4 84 00 ff 	l.andi r4,r4,0xff
    382c:	bc 24 00 00 	l.sfnei r4,0
    3830:	10 00 00 09 	l.bf 3854 <_malloc_r+0x61c>
    3834:	e4 4e 28 00 	l.sfgtu r14,r5
    3838:	10 00 00 03 	l.bf 3844 <_malloc_r+0x60c>
    383c:	9c a0 00 01 	l.addi r5,r0,1
    3840:	a8 a4 00 00 	l.ori r5,r4,0x0
    3844:	a4 a5 00 ff 	l.andi r5,r5,0xff
    3848:	bc 05 00 00 	l.sfeqi r5,0
    384c:	13 ff ff 88 	l.bf 366c <_malloc_r+0x434>
    3850:	a8 8e 00 01 	l.ori r4,r14,0x1
    3854:	04 00 01 78 	l.jal 3e34 <__malloc_unlock>
    3858:	a8 72 00 00 	l.ori r3,r18,0x0
    385c:	03 ff ff 46 	l.j 3574 <_malloc_r+0x33c>
    3860:	9d 60 00 00 	l.addi r11,r0,0
    3864:	03 ff fe e6 	l.j 33fc <_malloc_r+0x1c4>
    3868:	84 74 00 04 	l.lwz r3,4(r20)
    386c:	84 43 00 0c 	l.lwz r2,12(r3)
    3870:	e4 03 10 00 	l.sfeq r3,r2
    3874:	13 ff fe bd 	l.bf 3368 <_malloc_r+0x130>
    3878:	9c a5 00 02 	l.addi r5,r5,2
    387c:	03 ff ff 31 	l.j 3540 <_malloc_r+0x308>
    3880:	84 82 00 04 	l.lwz r4,4(r2)
    3884:	a8 ce 00 01 	l.ori r6,r14,0x1
    3888:	84 62 00 0c 	l.lwz r3,12(r2)
    388c:	84 a2 00 08 	l.lwz r5,8(r2)
    3890:	d4 02 30 04 	l.sw 4(r2),r6
    3894:	d4 05 18 0c 	l.sw 12(r5),r3
    3898:	e1 c2 70 00 	l.add r14,r2,r14
    389c:	03 ff ff ac 	l.j 374c <_malloc_r+0x514>
    38a0:	d4 03 28 08 	l.sw 8(r3),r5
    38a4:	e0 82 18 00 	l.add r4,r2,r3
    38a8:	84 c2 00 0c 	l.lwz r6,12(r2)
    38ac:	84 a4 00 04 	l.lwz r5,4(r4)
    38b0:	84 e2 00 08 	l.lwz r7,8(r2)
    38b4:	a8 a5 00 01 	l.ori r5,r5,0x1
    38b8:	a8 72 00 00 	l.ori r3,r18,0x0
    38bc:	d4 04 28 04 	l.sw 4(r4),r5
    38c0:	d4 07 30 0c 	l.sw 12(r7),r6
    38c4:	04 00 01 5c 	l.jal 3e34 <__malloc_unlock>
    38c8:	d4 06 38 08 	l.sw 8(r6),r7
    38cc:	03 ff ff 2a 	l.j 3574 <_malloc_r+0x33c>
    38d0:	9d 62 00 08 	l.addi r11,r2,8
    38d4:	9c c2 00 5b 	l.addi r6,r2,91
    38d8:	03 ff fe 84 	l.j 32e8 <_malloc_r+0xb0>
    38dc:	e0 47 38 00 	l.add r2,r7,r7
    38e0:	03 ff ff 5e 	l.j 3658 <_malloc_r+0x420>
    38e4:	a8 a4 00 00 	l.ori r5,r4,0x0
    38e8:	b8 c3 00 46 	l.srli r6,r3,0x6
    38ec:	9c 86 00 39 	l.addi r4,r6,57
    38f0:	9c c6 00 38 	l.addi r6,r6,56
    38f4:	03 ff ff 79 	l.j 36d8 <_malloc_r+0x4a0>
    38f8:	e0 84 20 00 	l.add r4,r4,r4
    38fc:	84 4c 00 08 	l.lwz r2,8(r12)
    3900:	e4 02 60 00 	l.sfeq r2,r12
    3904:	0c 00 00 c2 	l.bnf 3c0c <_malloc_r+0x9d4>
    3908:	15 00 00 00 	l.nop 0x0
    390c:	a4 45 00 03 	l.andi r2,r5,0x3
    3910:	9d 8c ff f8 	l.addi r12,r12,-8
    3914:	bc 22 00 00 	l.sfnei r2,0
    3918:	13 ff ff f9 	l.bf 38fc <_malloc_r+0x6c4>
    391c:	9c a5 ff ff 	l.addi r5,r5,-1
    3920:	84 54 00 04 	l.lwz r2,4(r20)
    3924:	ac 66 ff ff 	l.xori r3,r6,-1
    3928:	e0 43 10 03 	l.and r2,r3,r2
    392c:	d4 14 10 04 	l.sw 4(r20),r2
    3930:	e0 c6 30 00 	l.add r6,r6,r6
    3934:	e0 60 30 02 	l.sub r3,r0,r6
    3938:	e0 63 30 04 	l.or r3,r3,r6
    393c:	bd 63 00 00 	l.sfgesi r3,0
    3940:	13 ff ff 37 	l.bf 361c <_malloc_r+0x3e4>
    3944:	e4 a6 10 00 	l.sfleu r6,r2
    3948:	10 00 00 03 	l.bf 3954 <_malloc_r+0x71c>
    394c:	9c 60 00 01 	l.addi r3,r0,1
    3950:	9c 60 00 00 	l.addi r3,r0,0
    3954:	a4 63 00 ff 	l.andi r3,r3,0xff
    3958:	bc 03 00 00 	l.sfeqi r3,0
    395c:	13 ff ff 30 	l.bf 361c <_malloc_r+0x3e4>
    3960:	15 00 00 00 	l.nop 0x0
    3964:	e0 66 10 03 	l.and r3,r6,r2
    3968:	bc 23 00 00 	l.sfnei r3,0
    396c:	13 ff fe b9 	l.bf 3450 <_malloc_r+0x218>
    3970:	a8 ad 00 00 	l.ori r5,r13,0x0
    3974:	e0 c6 30 00 	l.add r6,r6,r6
    3978:	e0 66 10 03 	l.and r3,r6,r2
    397c:	bc 03 00 00 	l.sfeqi r3,0
    3980:	13 ff ff fd 	l.bf 3974 <_malloc_r+0x73c>
    3984:	9c a5 00 04 	l.addi r5,r5,4
    3988:	03 ff fe b3 	l.j 3454 <_malloc_r+0x21c>
    398c:	b9 05 00 03 	l.slli r8,r5,0x3
    3990:	1b c0 00 01 	l.movhi r30,0x1
    3994:	e4 23 d0 00 	l.sfne r3,r26
    3998:	ab de 5d 38 	l.ori r30,r30,0x5d38
    399c:	84 9e 00 00 	l.lwz r4,0(r30)
    39a0:	e0 96 20 00 	l.add r4,r22,r4
    39a4:	0c 00 00 6f 	l.bnf 3b60 <_malloc_r+0x928>
    39a8:	d4 1e 20 00 	l.sw 0(r30),r4
    39ac:	84 bc 00 00 	l.lwz r5,0(r28)
    39b0:	bc 25 ff ff 	l.sfnei r5,-1
    39b4:	0c 00 00 7f 	l.bnf 3bb0 <_malloc_r+0x978>
    39b8:	e0 7a 18 02 	l.sub r3,r26,r3
    39bc:	e0 83 20 00 	l.add r4,r3,r4
    39c0:	d4 1e 20 00 	l.sw 0(r30),r4
    39c4:	a4 7a 00 07 	l.andi r3,r26,0x7
    39c8:	bc 03 00 00 	l.sfeqi r3,0
    39cc:	10 00 00 06 	l.bf 39e4 <_malloc_r+0x7ac>
    39d0:	9c a0 10 00 	l.addi r5,r0,4096
    39d4:	e3 5a 18 02 	l.sub r26,r26,r3
    39d8:	9c a0 10 08 	l.addi r5,r0,4104
    39dc:	9f 5a 00 08 	l.addi r26,r26,8
    39e0:	e0 a5 18 02 	l.sub r5,r5,r3
    39e4:	e0 9a b0 00 	l.add r4,r26,r22
    39e8:	a8 72 00 00 	l.ori r3,r18,0x0
    39ec:	a4 84 0f ff 	l.andi r4,r4,0xfff
    39f0:	e2 c5 20 02 	l.sub r22,r5,r4
    39f4:	04 00 2c 8a 	l.jal ec1c <_sbrk_r>
    39f8:	a8 96 00 00 	l.ori r4,r22,0x0
    39fc:	bc 0b ff ff 	l.sfeqi r11,-1
    3a00:	10 00 00 70 	l.bf 3bc0 <_malloc_r+0x988>
    3a04:	9c 60 00 01 	l.addi r3,r0,1
    3a08:	e0 6b d0 02 	l.sub r3,r11,r26
    3a0c:	e0 63 b0 00 	l.add r3,r3,r22
    3a10:	a8 63 00 01 	l.ori r3,r3,0x1
    3a14:	84 9e 00 00 	l.lwz r4,0(r30)
    3a18:	18 a0 00 01 	l.movhi r5,0x1
    3a1c:	e0 96 20 00 	l.add r4,r22,r4
    3a20:	a8 a5 54 50 	l.ori r5,r5,0x5450
    3a24:	d4 14 d0 08 	l.sw 8(r20),r26
    3a28:	d4 1a 18 04 	l.sw 4(r26),r3
    3a2c:	e4 02 28 00 	l.sfeq r2,r5
    3a30:	10 00 00 11 	l.bf 3a74 <_malloc_r+0x83c>
    3a34:	d4 1e 20 00 	l.sw 0(r30),r4
    3a38:	bc 58 00 0f 	l.sfgtui r24,15
    3a3c:	0c 00 00 26 	l.bnf 3ad4 <_malloc_r+0x89c>
    3a40:	9c c0 ff f8 	l.addi r6,r0,-8
    3a44:	84 a2 00 04 	l.lwz r5,4(r2)
    3a48:	9c 78 ff f4 	l.addi r3,r24,-12
    3a4c:	a4 a5 00 01 	l.andi r5,r5,0x1
    3a50:	e0 63 30 03 	l.and r3,r3,r6
    3a54:	9c e0 00 05 	l.addi r7,r0,5
    3a58:	e0 a5 18 04 	l.or r5,r5,r3
    3a5c:	e0 c2 18 00 	l.add r6,r2,r3
    3a60:	d4 02 28 04 	l.sw 4(r2),r5
    3a64:	d4 06 38 04 	l.sw 4(r6),r7
    3a68:	bc a3 00 0f 	l.sfleui r3,15
    3a6c:	0c 00 00 4a 	l.bnf 3b94 <_malloc_r+0x95c>
    3a70:	d4 06 38 08 	l.sw 8(r6),r7
    3a74:	18 40 00 01 	l.movhi r2,0x1
    3a78:	a8 42 5d 64 	l.ori r2,r2,0x5d64
    3a7c:	84 62 00 00 	l.lwz r3,0(r2)
    3a80:	e4 a4 18 00 	l.sfleu r4,r3
    3a84:	10 00 00 03 	l.bf 3a90 <_malloc_r+0x858>
    3a88:	18 60 00 01 	l.movhi r3,0x1
    3a8c:	d4 02 20 00 	l.sw 0(r2),r4
    3a90:	a8 63 5d 60 	l.ori r3,r3,0x5d60
    3a94:	84 43 00 00 	l.lwz r2,0(r3)
    3a98:	e4 44 10 00 	l.sfgtu r4,r2
    3a9c:	0c 00 00 21 	l.bnf 3b20 <_malloc_r+0x8e8>
    3aa0:	84 54 00 08 	l.lwz r2,8(r20)
    3aa4:	84 a2 00 04 	l.lwz r5,4(r2)
    3aa8:	9d 00 ff fc 	l.addi r8,r0,-4
    3aac:	d4 03 20 00 	l.sw 0(r3),r4
    3ab0:	03 ff ff 59 	l.j 3814 <_malloc_r+0x5dc>
    3ab4:	e0 a5 40 03 	l.and r5,r5,r8
    3ab8:	10 00 00 11 	l.bf 3afc <_malloc_r+0x8c4>
    3abc:	bc 42 05 54 	l.sfgtui r2,1364
    3ac0:	b8 4e 00 4f 	l.srli r2,r14,0xf
    3ac4:	9c e2 00 78 	l.addi r7,r2,120
    3ac8:	9c c2 00 77 	l.addi r6,r2,119
    3acc:	03 ff fe 07 	l.j 32e8 <_malloc_r+0xb0>
    3ad0:	e0 47 38 00 	l.add r2,r7,r7
    3ad4:	9c 40 00 01 	l.addi r2,r0,1
    3ad8:	03 ff ff 5f 	l.j 3854 <_malloc_r+0x61c>
    3adc:	d4 1a 10 04 	l.sw 4(r26),r2
    3ae0:	9c 80 00 01 	l.addi r4,r0,1
    3ae4:	84 74 00 04 	l.lwz r3,4(r20)
    3ae8:	e0 c4 30 08 	l.sll r6,r4,r6
    3aec:	a8 87 00 00 	l.ori r4,r7,0x0
    3af0:	e0 66 18 04 	l.or r3,r6,r3
    3af4:	03 ff ff 0e 	l.j 372c <_malloc_r+0x4f4>
    3af8:	d4 14 18 04 	l.sw 4(r20),r3
    3afc:	10 00 00 22 	l.bf 3b84 <_malloc_r+0x94c>
    3b00:	15 00 00 00 	l.nop 0x0
    3b04:	b8 4e 00 52 	l.srli r2,r14,0x12
    3b08:	9c e2 00 7d 	l.addi r7,r2,125
    3b0c:	9c c2 00 7c 	l.addi r6,r2,124
    3b10:	03 ff fd f6 	l.j 32e8 <_malloc_r+0xb0>
    3b14:	e0 47 38 00 	l.add r2,r7,r7
    3b18:	03 ff ff 25 	l.j 37ac <_malloc_r+0x574>
    3b1c:	9e d6 00 10 	l.addi r22,r22,16
    3b20:	84 a2 00 04 	l.lwz r5,4(r2)
    3b24:	9c e0 ff fc 	l.addi r7,r0,-4
    3b28:	03 ff ff 3b 	l.j 3814 <_malloc_r+0x5dc>
    3b2c:	e0 a5 38 03 	l.and r5,r5,r7
    3b30:	10 00 00 26 	l.bf 3bc8 <_malloc_r+0x990>
    3b34:	bc 46 01 54 	l.sfgtui r6,340
    3b38:	b8 c3 00 4c 	l.srli r6,r3,0xc
    3b3c:	9c 86 00 6f 	l.addi r4,r6,111
    3b40:	9c c6 00 6e 	l.addi r6,r6,110
    3b44:	03 ff fe e5 	l.j 36d8 <_malloc_r+0x4a0>
    3b48:	e0 84 20 00 	l.add r4,r4,r4
    3b4c:	84 54 00 08 	l.lwz r2,8(r20)
    3b50:	9c e0 ff fc 	l.addi r7,r0,-4
    3b54:	84 a2 00 04 	l.lwz r5,4(r2)
    3b58:	03 ff ff 2f 	l.j 3814 <_malloc_r+0x5dc>
    3b5c:	e0 a5 38 03 	l.and r5,r5,r7
    3b60:	a4 a3 0f ff 	l.andi r5,r3,0xfff
    3b64:	bc 25 00 00 	l.sfnei r5,0
    3b68:	13 ff ff 91 	l.bf 39ac <_malloc_r+0x774>
    3b6c:	15 00 00 00 	l.nop 0x0
    3b70:	e0 58 b0 00 	l.add r2,r24,r22
    3b74:	84 74 00 08 	l.lwz r3,8(r20)
    3b78:	a8 42 00 01 	l.ori r2,r2,0x1
    3b7c:	03 ff ff be 	l.j 3a74 <_malloc_r+0x83c>
    3b80:	d4 03 10 04 	l.sw 4(r3),r2
    3b84:	9c 40 00 fe 	l.addi r2,r0,254
    3b88:	9c e0 00 7f 	l.addi r7,r0,127
    3b8c:	03 ff fd d7 	l.j 32e8 <_malloc_r+0xb0>
    3b90:	9c c0 00 7e 	l.addi r6,r0,126
    3b94:	9c 82 00 08 	l.addi r4,r2,8
    3b98:	18 40 00 01 	l.movhi r2,0x1
    3b9c:	a8 72 00 00 	l.ori r3,r18,0x0
    3ba0:	04 00 1b 68 	l.jal a940 <_free_r>
    3ba4:	a8 42 5d 38 	l.ori r2,r2,0x5d38
    3ba8:	03 ff ff b3 	l.j 3a74 <_malloc_r+0x83c>
    3bac:	84 82 00 00 	l.lwz r4,0(r2)
    3bb0:	18 60 00 01 	l.movhi r3,0x1
    3bb4:	a8 63 54 48 	l.ori r3,r3,0x5448
    3bb8:	03 ff ff 83 	l.j 39c4 <_malloc_r+0x78c>
    3bbc:	d4 03 d0 00 	l.sw 0(r3),r26
    3bc0:	03 ff ff 95 	l.j 3a14 <_malloc_r+0x7dc>
    3bc4:	9e c0 00 00 	l.addi r22,r0,0
    3bc8:	10 00 00 07 	l.bf 3be4 <_malloc_r+0x9ac>
    3bcc:	bc 46 05 54 	l.sfgtui r6,1364
    3bd0:	b8 c3 00 4f 	l.srli r6,r3,0xf
    3bd4:	9c 86 00 78 	l.addi r4,r6,120
    3bd8:	9c c6 00 77 	l.addi r6,r6,119
    3bdc:	03 ff fe bf 	l.j 36d8 <_malloc_r+0x4a0>
    3be0:	e0 84 20 00 	l.add r4,r4,r4
    3be4:	10 00 00 07 	l.bf 3c00 <_malloc_r+0x9c8>
    3be8:	15 00 00 00 	l.nop 0x0
    3bec:	b8 c3 00 52 	l.srli r6,r3,0x12
    3bf0:	9c 86 00 7d 	l.addi r4,r6,125
    3bf4:	9c c6 00 7c 	l.addi r6,r6,124
    3bf8:	03 ff fe b8 	l.j 36d8 <_malloc_r+0x4a0>
    3bfc:	e0 84 20 00 	l.add r4,r4,r4
    3c00:	9c 80 00 fe 	l.addi r4,r0,254
    3c04:	03 ff fe b5 	l.j 36d8 <_malloc_r+0x4a0>
    3c08:	9c c0 00 7e 	l.addi r6,r0,126
    3c0c:	03 ff ff 49 	l.j 3930 <_malloc_r+0x6f8>
    3c10:	84 54 00 04 	l.lwz r2,4(r20)
    3c14:	b8 ae 00 43 	l.srli r5,r14,0x3
    3c18:	9c 65 00 01 	l.addi r3,r5,1
    3c1c:	03 ff fe 3f 	l.j 3518 <_malloc_r+0x2e0>
    3c20:	e0 63 18 00 	l.add r3,r3,r3

00003c24 <memset>:
    3c24:	a4 c3 00 03 	l.andi r6,r3,0x3
    3c28:	d7 e1 0f f8 	l.sw -8(r1),r1
    3c2c:	d7 e1 17 fc 	l.sw -4(r1),r2
    3c30:	bc 06 00 00 	l.sfeqi r6,0
    3c34:	10 00 00 54 	l.bf 3d84 <memset+0x160>
    3c38:	9c 21 ff f8 	l.addi r1,r1,-8
    3c3c:	bc 25 00 00 	l.sfnei r5,0
    3c40:	0c 00 00 4c 	l.bnf 3d70 <memset+0x14c>
    3c44:	9c a5 ff ff 	l.addi r5,r5,-1
    3c48:	b9 a4 00 18 	l.slli r13,r4,0x18
    3c4c:	a8 e3 00 00 	l.ori r7,r3,0x0
    3c50:	a8 c3 00 00 	l.ori r6,r3,0x0
    3c54:	00 00 00 05 	l.j 3c68 <memset+0x44>
    3c58:	b9 ad 00 98 	l.srai r13,r13,0x18
    3c5c:	bc 05 00 00 	l.sfeqi r5,0
    3c60:	10 00 00 44 	l.bf 3d70 <memset+0x14c>
    3c64:	a8 ac 00 00 	l.ori r5,r12,0x0
    3c68:	9c c6 00 01 	l.addi r6,r6,1
    3c6c:	d8 07 68 00 	l.sb 0(r7),r13
    3c70:	a5 06 00 03 	l.andi r8,r6,0x3
    3c74:	9d 85 ff ff 	l.addi r12,r5,-1
    3c78:	bc 28 00 00 	l.sfnei r8,0
    3c7c:	13 ff ff f8 	l.bf 3c5c <memset+0x38>
    3c80:	9c e7 00 01 	l.addi r7,r7,1
    3c84:	bc 45 00 03 	l.sfgtui r5,3
    3c88:	0c 00 00 30 	l.bnf 3d48 <memset+0x124>
    3c8c:	bc 25 00 00 	l.sfnei r5,0
    3c90:	a4 e4 00 ff 	l.andi r7,r4,0xff
    3c94:	bc a5 00 0f 	l.sfleui r5,15
    3c98:	b9 07 00 08 	l.slli r8,r7,0x8
    3c9c:	e1 08 38 04 	l.or r8,r8,r7
    3ca0:	b8 e8 00 10 	l.slli r7,r8,0x10
    3ca4:	10 00 00 1b 	l.bf 3d10 <memset+0xec>
    3ca8:	e0 e8 38 04 	l.or r7,r8,r7
    3cac:	9e 25 ff f0 	l.addi r17,r5,-16
    3cb0:	9d 06 00 04 	l.addi r8,r6,4
    3cb4:	ba 31 00 44 	l.srli r17,r17,0x4
    3cb8:	9d e6 00 08 	l.addi r15,r6,8
    3cbc:	9d a6 00 0c 	l.addi r13,r6,12
    3cc0:	b9 71 00 04 	l.slli r11,r17,0x4
    3cc4:	a9 86 00 00 	l.ori r12,r6,0x0
    3cc8:	9d 6b 00 14 	l.addi r11,r11,20
    3ccc:	e1 66 58 00 	l.add r11,r6,r11
    3cd0:	d4 0c 38 00 	l.sw 0(r12),r7
    3cd4:	d4 08 38 00 	l.sw 0(r8),r7
    3cd8:	9d 08 00 10 	l.addi r8,r8,16
    3cdc:	d4 0f 38 00 	l.sw 0(r15),r7
    3ce0:	d4 0d 38 00 	l.sw 0(r13),r7
    3ce4:	e4 28 58 00 	l.sfne r8,r11
    3ce8:	9d 8c 00 10 	l.addi r12,r12,16
    3cec:	9d ef 00 10 	l.addi r15,r15,16
    3cf0:	13 ff ff f8 	l.bf 3cd0 <memset+0xac>
    3cf4:	9d ad 00 10 	l.addi r13,r13,16
    3cf8:	9e 31 00 01 	l.addi r17,r17,1
    3cfc:	a4 a5 00 0f 	l.andi r5,r5,0xf
    3d00:	ba 31 00 04 	l.slli r17,r17,0x4
    3d04:	bc a5 00 03 	l.sfleui r5,3
    3d08:	10 00 00 0f 	l.bf 3d44 <memset+0x120>
    3d0c:	e0 c6 88 00 	l.add r6,r6,r17
    3d10:	a9 86 00 00 	l.ori r12,r6,0x0
    3d14:	a9 05 00 00 	l.ori r8,r5,0x0
    3d18:	9d 08 ff fc 	l.addi r8,r8,-4
    3d1c:	d4 0c 38 00 	l.sw 0(r12),r7
    3d20:	bc 48 00 03 	l.sfgtui r8,3
    3d24:	13 ff ff fd 	l.bf 3d18 <memset+0xf4>
    3d28:	9d 8c 00 04 	l.addi r12,r12,4
    3d2c:	9c e5 ff fc 	l.addi r7,r5,-4
    3d30:	9c 40 ff fc 	l.addi r2,r0,-4
    3d34:	a4 a5 00 03 	l.andi r5,r5,0x3
    3d38:	e0 e7 10 03 	l.and r7,r7,r2
    3d3c:	9c e7 00 04 	l.addi r7,r7,4
    3d40:	e0 c6 38 00 	l.add r6,r6,r7
    3d44:	bc 25 00 00 	l.sfnei r5,0
    3d48:	0c 00 00 0a 	l.bnf 3d70 <memset+0x14c>
    3d4c:	15 00 00 00 	l.nop 0x0
    3d50:	b8 84 00 18 	l.slli r4,r4,0x18
    3d54:	e0 a6 28 00 	l.add r5,r6,r5
    3d58:	b8 84 00 98 	l.srai r4,r4,0x18
    3d5c:	d8 06 20 00 	l.sb 0(r6),r4
    3d60:	9c c6 00 01 	l.addi r6,r6,1
    3d64:	e4 25 30 00 	l.sfne r5,r6
    3d68:	13 ff ff fd 	l.bf 3d5c <memset+0x138>
    3d6c:	15 00 00 00 	l.nop 0x0
    3d70:	9c 21 00 08 	l.addi r1,r1,8
    3d74:	a9 63 00 00 	l.ori r11,r3,0x0
    3d78:	84 21 ff f8 	l.lwz r1,-8(r1)
    3d7c:	44 00 48 00 	l.jr r9
    3d80:	84 41 ff fc 	l.lwz r2,-4(r1)
    3d84:	03 ff ff c0 	l.j 3c84 <memset+0x60>
    3d88:	a8 c3 00 00 	l.ori r6,r3,0x0

00003d8c <__malloc_lock>:
    3d8c:	d7 e1 17 f0 	l.sw -16(r1),r2
    3d90:	18 40 00 01 	l.movhi r2,0x1
    3d94:	d7 e1 77 f4 	l.sw -12(r1),r14
    3d98:	d7 e1 97 f8 	l.sw -8(r1),r18
    3d9c:	d7 e1 4f fc 	l.sw -4(r1),r9
    3da0:	d7 e1 0f ec 	l.sw -20(r1),r1
    3da4:	9c 21 ff ec 	l.addi r1,r1,-20
    3da8:	a8 42 5d a0 	l.ori r2,r2,0x5da0
    3dac:	04 00 2c 48 	l.jal eecc <or1k_critical_begin>
    3db0:	a9 c3 00 00 	l.ori r14,r3,0x0
    3db4:	84 62 00 00 	l.lwz r3,0(r2)
    3db8:	e4 2e 18 00 	l.sfne r14,r3
    3dbc:	0c 00 00 0c 	l.bnf 3dec <__malloc_lock+0x60>
    3dc0:	aa 4b 00 00 	l.ori r18,r11,0x0
    3dc4:	84 82 00 00 	l.lwz r4,0(r2)
    3dc8:	bc 24 00 00 	l.sfnei r4,0
    3dcc:	13 ff ff fe 	l.bf 3dc4 <__malloc_lock+0x38>
    3dd0:	18 60 00 01 	l.movhi r3,0x1
    3dd4:	a8 ae 00 00 	l.ori r5,r14,0x0
    3dd8:	04 00 2c 64 	l.jal ef68 <or1k_sync_cas>
    3ddc:	a8 63 5d a0 	l.ori r3,r3,0x5da0
    3de0:	bc 2b 00 00 	l.sfnei r11,0
    3de4:	13 ff ff f8 	l.bf 3dc4 <__malloc_lock+0x38>
    3de8:	15 00 00 00 	l.nop 0x0
    3dec:	18 40 00 01 	l.movhi r2,0x1
    3df0:	a8 42 5d 9c 	l.ori r2,r2,0x5d9c
    3df4:	84 62 00 00 	l.lwz r3,0(r2)
    3df8:	bc 03 00 00 	l.sfeqi r3,0
    3dfc:	0c 00 00 04 	l.bnf 3e0c <__malloc_lock+0x80>
    3e00:	18 60 00 01 	l.movhi r3,0x1
    3e04:	a8 63 5d a4 	l.ori r3,r3,0x5da4
    3e08:	d4 03 90 00 	l.sw 0(r3),r18
    3e0c:	84 62 00 00 	l.lwz r3,0(r2)
    3e10:	9c 63 00 01 	l.addi r3,r3,1
    3e14:	d4 02 18 00 	l.sw 0(r2),r3
    3e18:	9c 21 00 14 	l.addi r1,r1,20
    3e1c:	85 21 ff fc 	l.lwz r9,-4(r1)
    3e20:	84 21 ff ec 	l.lwz r1,-20(r1)
    3e24:	84 41 ff f0 	l.lwz r2,-16(r1)
    3e28:	85 c1 ff f4 	l.lwz r14,-12(r1)
    3e2c:	44 00 48 00 	l.jr r9
    3e30:	86 41 ff f8 	l.lwz r18,-8(r1)

00003e34 <__malloc_unlock>:
    3e34:	18 60 00 01 	l.movhi r3,0x1
    3e38:	d7 e1 4f fc 	l.sw -4(r1),r9
    3e3c:	a8 63 5d 9c 	l.ori r3,r3,0x5d9c
    3e40:	d7 e1 0f f8 	l.sw -8(r1),r1
    3e44:	84 83 00 00 	l.lwz r4,0(r3)
    3e48:	9c 21 ff f8 	l.addi r1,r1,-8
    3e4c:	9c 84 ff ff 	l.addi r4,r4,-1
    3e50:	d4 03 20 00 	l.sw 0(r3),r4
    3e54:	84 83 00 00 	l.lwz r4,0(r3)
    3e58:	bc 24 00 00 	l.sfnei r4,0
    3e5c:	10 00 00 09 	l.bf 3e80 <__malloc_unlock+0x4c>
    3e60:	18 60 00 01 	l.movhi r3,0x1
    3e64:	18 a0 00 01 	l.movhi r5,0x1
    3e68:	a8 63 5d a4 	l.ori r3,r3,0x5da4
    3e6c:	a8 a5 5d a0 	l.ori r5,r5,0x5da0
    3e70:	84 63 00 00 	l.lwz r3,0(r3)
    3e74:	d4 05 20 00 	l.sw 0(r5),r4
    3e78:	04 00 2c 23 	l.jal ef04 <or1k_critical_end>
    3e7c:	15 00 00 00 	l.nop 0x0
    3e80:	9c 21 00 08 	l.addi r1,r1,8
    3e84:	85 21 ff fc 	l.lwz r9,-4(r1)
    3e88:	44 00 48 00 	l.jr r9
    3e8c:	84 21 ff f8 	l.lwz r1,-8(r1)

00003e90 <_printf_r>:
    3e90:	d7 e1 4f fc 	l.sw -4(r1),r9
    3e94:	d7 e1 0f f8 	l.sw -8(r1),r1
    3e98:	9c 21 ff f8 	l.addi r1,r1,-8
    3e9c:	a8 a4 00 00 	l.ori r5,r4,0x0
    3ea0:	9c c1 00 08 	l.addi r6,r1,8
    3ea4:	04 00 05 c1 	l.jal 55a8 <_vfprintf_r>
    3ea8:	84 83 00 08 	l.lwz r4,8(r3)
    3eac:	9c 21 00 08 	l.addi r1,r1,8
    3eb0:	85 21 ff fc 	l.lwz r9,-4(r1)
    3eb4:	44 00 48 00 	l.jr r9
    3eb8:	84 21 ff f8 	l.lwz r1,-8(r1)

00003ebc <printf>:
    3ebc:	d7 e1 4f fc 	l.sw -4(r1),r9
    3ec0:	d7 e1 0f f8 	l.sw -8(r1),r1
    3ec4:	9c 21 ff f4 	l.addi r1,r1,-12
    3ec8:	07 ff fc c0 	l.jal 31c8 <__getreent>
    3ecc:	d4 01 18 00 	l.sw 0(r1),r3
    3ed0:	84 61 00 00 	l.lwz r3,0(r1)
    3ed4:	9c c1 00 0c 	l.addi r6,r1,12
    3ed8:	a8 a3 00 00 	l.ori r5,r3,0x0
    3edc:	84 8b 00 08 	l.lwz r4,8(r11)
    3ee0:	04 00 05 b2 	l.jal 55a8 <_vfprintf_r>
    3ee4:	a8 6b 00 00 	l.ori r3,r11,0x0
    3ee8:	9c 21 00 0c 	l.addi r1,r1,12
    3eec:	85 21 ff fc 	l.lwz r9,-4(r1)
    3ef0:	44 00 48 00 	l.jr r9
    3ef4:	84 21 ff f8 	l.lwz r1,-8(r1)

00003ef8 <__sprint_r.part.0>:
    3ef8:	d7 e1 17 dc 	l.sw -36(r1),r2
    3efc:	84 44 00 64 	l.lwz r2,100(r4)
    3f00:	d7 e1 a7 e8 	l.sw -24(r1),r20
    3f04:	a4 42 20 00 	l.andi r2,r2,0x2000
    3f08:	d7 e1 b7 ec 	l.sw -20(r1),r22
    3f0c:	d7 e1 c7 f0 	l.sw -16(r1),r24
    3f10:	d7 e1 4f fc 	l.sw -4(r1),r9
    3f14:	d7 e1 0f d8 	l.sw -40(r1),r1
    3f18:	d7 e1 77 e0 	l.sw -32(r1),r14
    3f1c:	d7 e1 97 e4 	l.sw -28(r1),r18
    3f20:	d7 e1 d7 f4 	l.sw -12(r1),r26
    3f24:	d7 e1 e7 f8 	l.sw -8(r1),r28
    3f28:	bc 02 00 00 	l.sfeqi r2,0
    3f2c:	9c 21 ff d8 	l.addi r1,r1,-40
    3f30:	aa 84 00 00 	l.ori r20,r4,0x0
    3f34:	aa c3 00 00 	l.ori r22,r3,0x0
    3f38:	10 00 00 33 	l.bf 4004 <__sprint_r.part.0+0x10c>
    3f3c:	ab 05 00 00 	l.ori r24,r5,0x0
    3f40:	84 65 00 08 	l.lwz r3,8(r5)
    3f44:	87 45 00 00 	l.lwz r26,0(r5)
    3f48:	bc 23 00 00 	l.sfnei r3,0
    3f4c:	0c 00 00 2c 	l.bnf 3ffc <__sprint_r.part.0+0x104>
    3f50:	9f 9a 00 04 	l.addi r28,r26,4
    3f54:	86 5c 00 00 	l.lwz r18,0(r28)
    3f58:	9d c0 00 00 	l.addi r14,r0,0
    3f5c:	ba 52 00 42 	l.srli r18,r18,0x2
    3f60:	e4 32 70 00 	l.sfne r18,r14
    3f64:	10 00 00 07 	l.bf 3f80 <__sprint_r.part.0+0x88>
    3f68:	84 5a 00 00 	l.lwz r2,0(r26)
    3f6c:	00 00 00 1e 	l.j 3fe4 <__sprint_r.part.0+0xec>
    3f70:	ba 52 00 02 	l.slli r18,r18,0x2
    3f74:	e4 32 70 00 	l.sfne r18,r14
    3f78:	0c 00 00 19 	l.bnf 3fdc <__sprint_r.part.0+0xe4>
    3f7c:	15 00 00 00 	l.nop 0x0
    3f80:	84 82 00 00 	l.lwz r4,0(r2)
    3f84:	a8 b4 00 00 	l.ori r5,r20,0x0
    3f88:	a8 76 00 00 	l.ori r3,r22,0x0
    3f8c:	04 00 19 e2 	l.jal a714 <_fputwc_r>
    3f90:	9d ce 00 01 	l.addi r14,r14,1
    3f94:	bc 0b ff ff 	l.sfeqi r11,-1
    3f98:	0f ff ff f7 	l.bnf 3f74 <__sprint_r.part.0+0x7c>
    3f9c:	9c 42 00 04 	l.addi r2,r2,4
    3fa0:	9c 40 00 00 	l.addi r2,r0,0
    3fa4:	d4 18 10 08 	l.sw 8(r24),r2
    3fa8:	d4 18 10 04 	l.sw 4(r24),r2
    3fac:	9c 21 00 28 	l.addi r1,r1,40
    3fb0:	85 21 ff fc 	l.lwz r9,-4(r1)
    3fb4:	84 21 ff d8 	l.lwz r1,-40(r1)
    3fb8:	84 41 ff dc 	l.lwz r2,-36(r1)
    3fbc:	85 c1 ff e0 	l.lwz r14,-32(r1)
    3fc0:	86 41 ff e4 	l.lwz r18,-28(r1)
    3fc4:	86 81 ff e8 	l.lwz r20,-24(r1)
    3fc8:	86 c1 ff ec 	l.lwz r22,-20(r1)
    3fcc:	87 01 ff f0 	l.lwz r24,-16(r1)
    3fd0:	87 41 ff f4 	l.lwz r26,-12(r1)
    3fd4:	44 00 48 00 	l.jr r9
    3fd8:	87 81 ff f8 	l.lwz r28,-8(r1)
    3fdc:	84 78 00 08 	l.lwz r3,8(r24)
    3fe0:	ba 52 00 02 	l.slli r18,r18,0x2
    3fe4:	9f 5a 00 08 	l.addi r26,r26,8
    3fe8:	9f 9c 00 08 	l.addi r28,r28,8
    3fec:	e0 63 90 02 	l.sub r3,r3,r18
    3ff0:	bc 23 00 00 	l.sfnei r3,0
    3ff4:	13 ff ff d8 	l.bf 3f54 <__sprint_r.part.0+0x5c>
    3ff8:	d4 18 18 08 	l.sw 8(r24),r3
    3ffc:	03 ff ff e9 	l.j 3fa0 <__sprint_r.part.0+0xa8>
    4000:	9d 60 00 00 	l.addi r11,r0,0
    4004:	04 00 1b 24 	l.jal ac94 <__sfvwrite_r>
    4008:	9c 40 00 00 	l.addi r2,r0,0
    400c:	03 ff ff e7 	l.j 3fa8 <__sprint_r.part.0+0xb0>
    4010:	d4 18 10 08 	l.sw 8(r24),r2

00004014 <__sprint_r>:
    4014:	85 65 00 08 	l.lwz r11,8(r5)
    4018:	d7 e1 4f fc 	l.sw -4(r1),r9
    401c:	d7 e1 0f f8 	l.sw -8(r1),r1
    4020:	bc 2b 00 00 	l.sfnei r11,0
    4024:	0c 00 00 08 	l.bnf 4044 <__sprint_r+0x30>
    4028:	9c 21 ff f8 	l.addi r1,r1,-8
    402c:	07 ff ff b3 	l.jal 3ef8 <__sprint_r.part.0>
    4030:	15 00 00 00 	l.nop 0x0
    4034:	9c 21 00 08 	l.addi r1,r1,8
    4038:	85 21 ff fc 	l.lwz r9,-4(r1)
    403c:	44 00 48 00 	l.jr r9
    4040:	84 21 ff f8 	l.lwz r1,-8(r1)
    4044:	9c 21 00 08 	l.addi r1,r1,8
    4048:	d4 05 58 04 	l.sw 4(r5),r11
    404c:	85 21 ff fc 	l.lwz r9,-4(r1)
    4050:	44 00 48 00 	l.jr r9
    4054:	84 21 ff f8 	l.lwz r1,-8(r1)

00004058 <_vfiprintf_r>:
    4058:	d7 e1 77 dc 	l.sw -36(r1),r14
    405c:	d7 e1 b7 e8 	l.sw -24(r1),r22
    4060:	d7 e1 c7 ec 	l.sw -20(r1),r24
    4064:	d7 e1 4f fc 	l.sw -4(r1),r9
    4068:	d7 e1 0f d4 	l.sw -44(r1),r1
    406c:	d7 e1 17 d8 	l.sw -40(r1),r2
    4070:	d7 e1 97 e0 	l.sw -32(r1),r18
    4074:	d7 e1 a7 e4 	l.sw -28(r1),r20
    4078:	d7 e1 d7 f0 	l.sw -16(r1),r26
    407c:	d7 e1 e7 f4 	l.sw -12(r1),r28
    4080:	d7 e1 f7 f8 	l.sw -8(r1),r30
    4084:	9c 21 ff 34 	l.addi r1,r1,-204
    4088:	bc 03 00 00 	l.sfeqi r3,0
    408c:	d4 01 30 1c 	l.sw 28(r1),r6
    4090:	aa c3 00 00 	l.ori r22,r3,0x0
    4094:	a9 c4 00 00 	l.ori r14,r4,0x0
    4098:	10 00 00 06 	l.bf 40b0 <_vfiprintf_r+0x58>
    409c:	ab 05 00 00 	l.ori r24,r5,0x0
    40a0:	84 43 00 38 	l.lwz r2,56(r3)
    40a4:	bc 22 00 00 	l.sfnei r2,0
    40a8:	0c 00 00 8e 	l.bnf 42e0 <_vfiprintf_r+0x288>
    40ac:	15 00 00 00 	l.nop 0x0
    40b0:	98 6e 00 0c 	l.lhs r3,12(r14)
    40b4:	a4 43 ff ff 	l.andi r2,r3,0xffff
    40b8:	a4 82 20 00 	l.andi r4,r2,0x2000
    40bc:	bc 24 00 00 	l.sfnei r4,0
    40c0:	10 00 00 08 	l.bf 40e0 <_vfiprintf_r+0x88>
    40c4:	9c a0 df ff 	l.addi r5,r0,-8193
    40c8:	84 8e 00 64 	l.lwz r4,100(r14)
    40cc:	a8 43 20 00 	l.ori r2,r3,0x2000
    40d0:	e0 64 28 03 	l.and r3,r4,r5
    40d4:	dc 0e 10 0c 	l.sh 12(r14),r2
    40d8:	d4 0e 18 64 	l.sw 100(r14),r3
    40dc:	a4 42 ff ff 	l.andi r2,r2,0xffff
    40e0:	a4 62 00 08 	l.andi r3,r2,0x8
    40e4:	bc 03 00 00 	l.sfeqi r3,0
    40e8:	10 00 00 5e 	l.bf 4260 <_vfiprintf_r+0x208>
    40ec:	a8 8e 00 00 	l.ori r4,r14,0x0
    40f0:	84 6e 00 10 	l.lwz r3,16(r14)
    40f4:	bc 23 00 00 	l.sfnei r3,0
    40f8:	0c 00 00 5a 	l.bnf 4260 <_vfiprintf_r+0x208>
    40fc:	a4 42 00 1a 	l.andi r2,r2,0x1a
    4100:	bc 22 00 0a 	l.sfnei r2,10
    4104:	0c 00 00 61 	l.bnf 4288 <_vfiprintf_r+0x230>
    4108:	9d 01 00 5f 	l.addi r8,r1,95
    410c:	9c 40 00 00 	l.addi r2,r0,0
    4110:	d4 01 40 18 	l.sw 24(r1),r8
    4114:	9f c1 00 60 	l.addi r30,r1,96
    4118:	d4 01 10 34 	l.sw 52(r1),r2
    411c:	d4 01 10 30 	l.sw 48(r1),r2
    4120:	d4 01 10 20 	l.sw 32(r1),r2
    4124:	84 41 00 18 	l.lwz r2,24(r1)
    4128:	d4 01 f0 2c 	l.sw 44(r1),r30
    412c:	e0 5e 10 02 	l.sub r2,r30,r2
    4130:	a8 fe 00 00 	l.ori r7,r30,0x0
    4134:	d4 01 10 24 	l.sw 36(r1),r2
    4138:	90 58 00 00 	l.lbs r2,0(r24)
    413c:	ac 62 00 25 	l.xori r3,r2,37
    4140:	a4 63 00 ff 	l.andi r3,r3,0xff
    4144:	bc 03 00 00 	l.sfeqi r3,0
    4148:	10 00 00 27 	l.bf 41e4 <_vfiprintf_r+0x18c>
    414c:	aa 58 00 00 	l.ori r18,r24,0x0
    4150:	a4 42 00 ff 	l.andi r2,r2,0xff
    4154:	bc 02 00 00 	l.sfeqi r2,0
    4158:	0c 00 00 0a 	l.bnf 4180 <_vfiprintf_r+0x128>
    415c:	9e 52 00 01 	l.addi r18,r18,1
    4160:	9e 52 ff ff 	l.addi r18,r18,-1
    4164:	00 00 00 21 	l.j 41e8 <_vfiprintf_r+0x190>
    4168:	90 52 00 00 	l.lbs r2,0(r18)
    416c:	a4 42 00 ff 	l.andi r2,r2,0xff
    4170:	bc 22 00 00 	l.sfnei r2,0
    4174:	0c 00 00 09 	l.bnf 4198 <_vfiprintf_r+0x140>
    4178:	e0 52 c0 02 	l.sub r2,r18,r24
    417c:	9e 52 00 01 	l.addi r18,r18,1
    4180:	90 52 00 00 	l.lbs r2,0(r18)
    4184:	a4 62 00 ff 	l.andi r3,r2,0xff
    4188:	bc 03 00 00 	l.sfeqi r3,0
    418c:	0f ff ff f8 	l.bnf 416c <_vfiprintf_r+0x114>
    4190:	ac 42 00 25 	l.xori r2,r2,37
    4194:	e0 52 c0 02 	l.sub r2,r18,r24
    4198:	bc 02 00 00 	l.sfeqi r2,0
    419c:	10 00 00 12 	l.bf 41e4 <_vfiprintf_r+0x18c>
    41a0:	84 81 00 34 	l.lwz r4,52(r1)
    41a4:	84 61 00 30 	l.lwz r3,48(r1)
    41a8:	e0 82 20 00 	l.add r4,r2,r4
    41ac:	9c 63 00 01 	l.addi r3,r3,1
    41b0:	d4 07 c0 00 	l.sw 0(r7),r24
    41b4:	d4 07 10 04 	l.sw 4(r7),r2
    41b8:	d4 01 20 34 	l.sw 52(r1),r4
    41bc:	bd 43 00 07 	l.sfgtsi r3,7
    41c0:	0c 00 00 20 	l.bnf 4240 <_vfiprintf_r+0x1e8>
    41c4:	d4 01 18 30 	l.sw 48(r1),r3
    41c8:	bc 24 00 00 	l.sfnei r4,0
    41cc:	10 00 03 c3 	l.bf 50d8 <_vfiprintf_r+0x1080>
    41d0:	85 01 00 20 	l.lwz r8,32(r1)
    41d4:	d4 01 20 30 	l.sw 48(r1),r4
    41d8:	e1 08 10 00 	l.add r8,r8,r2
    41dc:	a8 fe 00 00 	l.ori r7,r30,0x0
    41e0:	d4 01 40 20 	l.sw 32(r1),r8
    41e4:	90 52 00 00 	l.lbs r2,0(r18)
    41e8:	bc 02 00 00 	l.sfeqi r2,0
    41ec:	10 00 04 43 	l.bf 52f8 <_vfiprintf_r+0x12a0>
    41f0:	9c a0 00 00 	l.addi r5,r0,0
    41f4:	9c 40 00 00 	l.addi r2,r0,0
    41f8:	9e 52 00 01 	l.addi r18,r18,1
    41fc:	d8 01 10 29 	l.sb 41(r1),r2
    4200:	a9 a5 00 00 	l.ori r13,r5,0x0
    4204:	9c c0 ff ff 	l.addi r6,r0,-1
    4208:	a8 45 00 00 	l.ori r2,r5,0x0
    420c:	ab 85 00 00 	l.ori r28,r5,0x0
    4210:	90 92 00 00 	l.lbs r4,0(r18)
    4214:	9f 12 00 01 	l.addi r24,r18,1
    4218:	9c 64 ff e0 	l.addi r3,r4,-32
    421c:	bc 43 00 58 	l.sfgtui r3,88
    4220:	10 00 02 11 	l.bf 4a64 <_vfiprintf_r+0xa0c>
    4224:	19 00 00 01 	l.movhi r8,0x1
    4228:	b8 63 00 02 	l.slli r3,r3,0x2
    422c:	a9 08 29 3c 	l.ori r8,r8,0x293c
    4230:	e0 63 40 00 	l.add r3,r3,r8
    4234:	84 63 00 00 	l.lwz r3,0(r3)
    4238:	44 00 18 00 	l.jr r3
    423c:	15 00 00 00 	l.nop 0x0
    4240:	9c e7 00 08 	l.addi r7,r7,8
    4244:	85 01 00 20 	l.lwz r8,32(r1)
    4248:	e1 08 10 00 	l.add r8,r8,r2
    424c:	03 ff ff e6 	l.j 41e4 <_vfiprintf_r+0x18c>
    4250:	d4 01 40 20 	l.sw 32(r1),r8
    4254:	ab 9c 00 10 	l.ori r28,r28,0x10
    4258:	03 ff ff ee 	l.j 4210 <_vfiprintf_r+0x1b8>
    425c:	aa 58 00 00 	l.ori r18,r24,0x0
    4260:	04 00 0d db 	l.jal 79cc <__swsetup_r>
    4264:	a8 76 00 00 	l.ori r3,r22,0x0
    4268:	bc 0b 00 00 	l.sfeqi r11,0
    426c:	0c 00 04 13 	l.bnf 52b8 <_vfiprintf_r+0x1260>
    4270:	15 00 00 00 	l.nop 0x0
    4274:	94 4e 00 0c 	l.lhz r2,12(r14)
    4278:	a4 42 00 1a 	l.andi r2,r2,0x1a
    427c:	bc 22 00 0a 	l.sfnei r2,10
    4280:	13 ff ff a3 	l.bf 410c <_vfiprintf_r+0xb4>
    4284:	9d 01 00 5f 	l.addi r8,r1,95
    4288:	98 4e 00 0e 	l.lhs r2,14(r14)
    428c:	bd 82 00 00 	l.sfltsi r2,0
    4290:	13 ff ff 9f 	l.bf 410c <_vfiprintf_r+0xb4>
    4294:	9d 01 00 5f 	l.addi r8,r1,95
    4298:	84 c1 00 1c 	l.lwz r6,28(r1)
    429c:	a8 b8 00 00 	l.ori r5,r24,0x0
    42a0:	a8 8e 00 00 	l.ori r4,r14,0x0
    42a4:	04 00 04 88 	l.jal 54c4 <__sbprintf>
    42a8:	a8 76 00 00 	l.ori r3,r22,0x0
    42ac:	9c 21 00 cc 	l.addi r1,r1,204
    42b0:	85 21 ff fc 	l.lwz r9,-4(r1)
    42b4:	84 21 ff d4 	l.lwz r1,-44(r1)
    42b8:	84 41 ff d8 	l.lwz r2,-40(r1)
    42bc:	85 c1 ff dc 	l.lwz r14,-36(r1)
    42c0:	86 41 ff e0 	l.lwz r18,-32(r1)
    42c4:	86 81 ff e4 	l.lwz r20,-28(r1)
    42c8:	86 c1 ff e8 	l.lwz r22,-24(r1)
    42cc:	87 01 ff ec 	l.lwz r24,-20(r1)
    42d0:	87 41 ff f0 	l.lwz r26,-16(r1)
    42d4:	87 81 ff f4 	l.lwz r28,-12(r1)
    42d8:	44 00 48 00 	l.jr r9
    42dc:	87 c1 ff f8 	l.lwz r30,-8(r1)
    42e0:	04 00 18 74 	l.jal a4b0 <__sinit>
    42e4:	15 00 00 00 	l.nop 0x0
    42e8:	03 ff ff 73 	l.j 40b4 <_vfiprintf_r+0x5c>
    42ec:	98 6e 00 0c 	l.lhs r3,12(r14)
    42f0:	85 01 00 1c 	l.lwz r8,28(r1)
    42f4:	84 48 00 00 	l.lwz r2,0(r8)
    42f8:	9d 08 00 04 	l.addi r8,r8,4
    42fc:	bd 62 00 00 	l.sfgesi r2,0
    4300:	13 ff ff d6 	l.bf 4258 <_vfiprintf_r+0x200>
    4304:	d4 01 40 1c 	l.sw 28(r1),r8
    4308:	e0 40 10 02 	l.sub r2,r0,r2
    430c:	ab 9c 00 04 	l.ori r28,r28,0x4
    4310:	03 ff ff c0 	l.j 4210 <_vfiprintf_r+0x1b8>
    4314:	aa 58 00 00 	l.ori r18,r24,0x0
    4318:	9d 00 00 30 	l.addi r8,r0,48
    431c:	9c 60 00 78 	l.addi r3,r0,120
    4320:	9c 80 00 00 	l.addi r4,r0,0
    4324:	d8 01 40 2a 	l.sb 42(r1),r8
    4328:	d8 01 18 2b 	l.sb 43(r1),r3
    432c:	85 01 00 1c 	l.lwz r8,28(r1)
    4330:	d8 01 20 29 	l.sb 41(r1),r4
    4334:	bd 86 00 00 	l.sfltsi r6,0
    4338:	9d 68 00 04 	l.addi r11,r8,4
    433c:	10 00 03 e5 	l.bf 52d0 <_vfiprintf_r+0x1278>
    4340:	84 68 00 00 	l.lwz r3,0(r8)
    4344:	e0 80 18 02 	l.sub r4,r0,r3
    4348:	9c a0 ff 7f 	l.addi r5,r0,-129
    434c:	e0 84 18 04 	l.or r4,r4,r3
    4350:	e1 fc 28 03 	l.and r15,r28,r5
    4354:	d4 01 58 1c 	l.sw 28(r1),r11
    4358:	bd 84 00 00 	l.sfltsi r4,0
    435c:	10 00 03 a3 	l.bf 51e8 <_vfiprintf_r+0x1190>
    4360:	ab 8f 00 02 	l.ori r28,r15,0x2
    4364:	e0 a0 30 02 	l.sub r5,r0,r6
    4368:	e0 a5 30 04 	l.or r5,r5,r6
    436c:	b8 a5 00 5f 	l.srli r5,r5,0x1f
    4370:	bc 25 00 00 	l.sfnei r5,0
    4374:	10 00 03 9e 	l.bf 51ec <_vfiprintf_r+0x1194>
    4378:	19 60 00 01 	l.movhi r11,0x1
    437c:	9c c0 00 00 	l.addi r6,r0,0
    4380:	aa 5e 00 00 	l.ori r18,r30,0x0
    4384:	ab 46 00 00 	l.ori r26,r6,0x0
    4388:	e5 66 d0 00 	l.sfges r6,r26
    438c:	10 00 00 03 	l.bf 4398 <_vfiprintf_r+0x340>
    4390:	aa 86 00 00 	l.ori r20,r6,0x0
    4394:	aa 9a 00 00 	l.ori r20,r26,0x0
    4398:	bc 05 00 00 	l.sfeqi r5,0
    439c:	10 00 00 04 	l.bf 43ac <_vfiprintf_r+0x354>
    43a0:	a6 bc 00 02 	l.andi r21,r28,0x2
    43a4:	9e 94 00 01 	l.addi r20,r20,1
    43a8:	a6 bc 00 02 	l.andi r21,r28,0x2
    43ac:	bc 15 00 00 	l.sfeqi r21,0
    43b0:	10 00 00 03 	l.bf 43bc <_vfiprintf_r+0x364>
    43b4:	a6 7c 00 84 	l.andi r19,r28,0x84
    43b8:	9e 94 00 02 	l.addi r20,r20,2
    43bc:	bc 13 00 00 	l.sfeqi r19,0
    43c0:	0c 00 01 fa 	l.bnf 4ba8 <_vfiprintf_r+0xb50>
    43c4:	84 a1 00 30 	l.lwz r5,48(r1)
    43c8:	e1 a2 a0 02 	l.sub r13,r2,r20
    43cc:	bd 4d 00 00 	l.sfgtsi r13,0
    43d0:	0c 00 01 f6 	l.bnf 4ba8 <_vfiprintf_r+0xb50>
    43d4:	bd 4d 00 10 	l.sfgtsi r13,16
    43d8:	0c 00 03 e7 	l.bnf 5374 <_vfiprintf_r+0x131c>
    43dc:	84 61 00 34 	l.lwz r3,52(r1)
    43e0:	1a 20 00 01 	l.movhi r17,0x1
    43e4:	85 61 00 30 	l.lwz r11,48(r1)
    43e8:	aa 31 2a b0 	l.ori r17,r17,0x2ab0
    43ec:	00 00 00 09 	l.j 4410 <_vfiprintf_r+0x3b8>
    43f0:	9e e0 00 10 	l.addi r23,r0,16
    43f4:	9c ab 00 02 	l.addi r5,r11,2
    43f8:	9c e7 00 08 	l.addi r7,r7,8
    43fc:	a9 64 00 00 	l.ori r11,r4,0x0
    4400:	9d ad ff f0 	l.addi r13,r13,-16
    4404:	bd 4d 00 10 	l.sfgtsi r13,16
    4408:	0c 00 00 12 	l.bnf 4450 <_vfiprintf_r+0x3f8>
    440c:	15 00 00 00 	l.nop 0x0
    4410:	9c 8b 00 01 	l.addi r4,r11,1
    4414:	9c 63 00 10 	l.addi r3,r3,16
    4418:	d4 07 88 00 	l.sw 0(r7),r17
    441c:	d4 07 b8 04 	l.sw 4(r7),r23
    4420:	d4 01 18 34 	l.sw 52(r1),r3
    4424:	bd 44 00 07 	l.sfgtsi r4,7
    4428:	0f ff ff f3 	l.bnf 43f4 <_vfiprintf_r+0x39c>
    442c:	d4 01 20 30 	l.sw 48(r1),r4
    4430:	bc 23 00 00 	l.sfnei r3,0
    4434:	10 00 01 c6 	l.bf 4b4c <_vfiprintf_r+0xaf4>
    4438:	a9 63 00 00 	l.ori r11,r3,0x0
    443c:	9d ad ff f0 	l.addi r13,r13,-16
    4440:	bd 4d 00 10 	l.sfgtsi r13,16
    4444:	9c a0 00 01 	l.addi r5,r0,1
    4448:	13 ff ff f2 	l.bf 4410 <_vfiprintf_r+0x3b8>
    444c:	a8 fe 00 00 	l.ori r7,r30,0x0
    4450:	e0 6d 18 00 	l.add r3,r13,r3
    4454:	d4 07 88 00 	l.sw 0(r7),r17
    4458:	d4 07 68 04 	l.sw 4(r7),r13
    445c:	d4 01 18 34 	l.sw 52(r1),r3
    4460:	bd 45 00 07 	l.sfgtsi r5,7
    4464:	10 00 02 9d 	l.bf 4ed8 <_vfiprintf_r+0xe80>
    4468:	d4 01 28 30 	l.sw 48(r1),r5
    446c:	90 81 00 29 	l.lbs r4,41(r1)
    4470:	bc 04 00 00 	l.sfeqi r4,0
    4474:	9c e7 00 08 	l.addi r7,r7,8
    4478:	0c 00 01 d2 	l.bnf 4bc0 <_vfiprintf_r+0xb68>
    447c:	9d 65 00 01 	l.addi r11,r5,1
    4480:	bc 15 00 00 	l.sfeqi r21,0
    4484:	10 00 01 e1 	l.bf 4c08 <_vfiprintf_r+0xbb0>
    4488:	bc 33 00 80 	l.sfnei r19,128
    448c:	9c 63 00 02 	l.addi r3,r3,2
    4490:	9d 01 00 2a 	l.addi r8,r1,42
    4494:	9c 80 00 02 	l.addi r4,r0,2
    4498:	d4 07 40 00 	l.sw 0(r7),r8
    449c:	d4 07 20 04 	l.sw 4(r7),r4
    44a0:	d4 01 18 34 	l.sw 52(r1),r3
    44a4:	bd 4b 00 07 	l.sfgtsi r11,7
    44a8:	0c 00 02 a4 	l.bnf 4f38 <_vfiprintf_r+0xee0>
    44ac:	d4 01 58 30 	l.sw 48(r1),r11
    44b0:	bc 23 00 00 	l.sfnei r3,0
    44b4:	10 00 03 23 	l.bf 5140 <_vfiprintf_r+0x10e8>
    44b8:	bc 33 00 80 	l.sfnei r19,128
    44bc:	9d 60 00 01 	l.addi r11,r0,1
    44c0:	a8 a3 00 00 	l.ori r5,r3,0x0
    44c4:	10 00 01 d3 	l.bf 4c10 <_vfiprintf_r+0xbb8>
    44c8:	a8 fe 00 00 	l.ori r7,r30,0x0
    44cc:	e2 22 a0 02 	l.sub r17,r2,r20
    44d0:	bd b1 00 00 	l.sflesi r17,0
    44d4:	10 00 01 cf 	l.bf 4c10 <_vfiprintf_r+0xbb8>
    44d8:	bd b1 00 10 	l.sflesi r17,16
    44dc:	10 00 03 c2 	l.bf 53e4 <_vfiprintf_r+0x138c>
    44e0:	15 00 00 00 	l.nop 0x0
    44e4:	19 a0 00 01 	l.movhi r13,0x1
    44e8:	9e a0 00 10 	l.addi r21,r0,16
    44ec:	00 00 00 09 	l.j 4510 <_vfiprintf_r+0x4b8>
    44f0:	a9 ad 2a a0 	l.ori r13,r13,0x2aa0
    44f4:	9e 65 00 02 	l.addi r19,r5,2
    44f8:	9c e7 00 08 	l.addi r7,r7,8
    44fc:	a8 a4 00 00 	l.ori r5,r4,0x0
    4500:	9e 31 ff f0 	l.addi r17,r17,-16
    4504:	bd 51 00 10 	l.sfgtsi r17,16
    4508:	0c 00 00 12 	l.bnf 4550 <_vfiprintf_r+0x4f8>
    450c:	15 00 00 00 	l.nop 0x0
    4510:	9c 85 00 01 	l.addi r4,r5,1
    4514:	9c 63 00 10 	l.addi r3,r3,16
    4518:	d4 07 68 00 	l.sw 0(r7),r13
    451c:	d4 07 a8 04 	l.sw 4(r7),r21
    4520:	d4 01 18 34 	l.sw 52(r1),r3
    4524:	bd 44 00 07 	l.sfgtsi r4,7
    4528:	0f ff ff f3 	l.bnf 44f4 <_vfiprintf_r+0x49c>
    452c:	d4 01 20 30 	l.sw 48(r1),r4
    4530:	bc 23 00 00 	l.sfnei r3,0
    4534:	10 00 02 56 	l.bf 4e8c <_vfiprintf_r+0xe34>
    4538:	9e 60 00 01 	l.addi r19,r0,1
    453c:	9e 31 ff f0 	l.addi r17,r17,-16
    4540:	bd 51 00 10 	l.sfgtsi r17,16
    4544:	a8 a3 00 00 	l.ori r5,r3,0x0
    4548:	13 ff ff f2 	l.bf 4510 <_vfiprintf_r+0x4b8>
    454c:	a8 fe 00 00 	l.ori r7,r30,0x0
    4550:	e0 63 88 00 	l.add r3,r3,r17
    4554:	d4 07 68 00 	l.sw 0(r7),r13
    4558:	d4 07 88 04 	l.sw 4(r7),r17
    455c:	d4 01 18 34 	l.sw 52(r1),r3
    4560:	bd 53 00 07 	l.sfgtsi r19,7
    4564:	10 00 03 06 	l.bf 517c <_vfiprintf_r+0x1124>
    4568:	d4 01 98 30 	l.sw 48(r1),r19
    456c:	e0 c6 d0 02 	l.sub r6,r6,r26
    4570:	9c e7 00 08 	l.addi r7,r7,8
    4574:	bd a6 00 00 	l.sflesi r6,0
    4578:	9d 73 00 01 	l.addi r11,r19,1
    457c:	0c 00 01 a9 	l.bnf 4c20 <_vfiprintf_r+0xbc8>
    4580:	a8 b3 00 00 	l.ori r5,r19,0x0
    4584:	e0 7a 18 00 	l.add r3,r26,r3
    4588:	d4 07 90 00 	l.sw 0(r7),r18
    458c:	d4 07 d0 04 	l.sw 4(r7),r26
    4590:	d4 01 18 34 	l.sw 52(r1),r3
    4594:	bd 4b 00 07 	l.sfgtsi r11,7
    4598:	0c 00 01 cf 	l.bnf 4cd4 <_vfiprintf_r+0xc7c>
    459c:	d4 01 58 30 	l.sw 48(r1),r11
    45a0:	bc 23 00 00 	l.sfnei r3,0
    45a4:	10 00 02 be 	l.bf 509c <_vfiprintf_r+0x1044>
    45a8:	a5 fc 00 04 	l.andi r15,r28,0x4
    45ac:	bc 2f 00 00 	l.sfnei r15,0
    45b0:	0c 00 00 06 	l.bnf 45c8 <_vfiprintf_r+0x570>
    45b4:	d4 01 18 30 	l.sw 48(r1),r3
    45b8:	e2 42 a0 02 	l.sub r18,r2,r20
    45bc:	bd 52 00 00 	l.sfgtsi r18,0
    45c0:	10 00 01 ce 	l.bf 4cf8 <_vfiprintf_r+0xca0>
    45c4:	a8 fe 00 00 	l.ori r7,r30,0x0
    45c8:	e5 62 a0 00 	l.sfges r2,r20
    45cc:	10 00 00 03 	l.bf 45d8 <_vfiprintf_r+0x580>
    45d0:	85 01 00 20 	l.lwz r8,32(r1)
    45d4:	a8 54 00 00 	l.ori r2,r20,0x0
    45d8:	e1 08 10 00 	l.add r8,r8,r2
    45dc:	d4 01 40 20 	l.sw 32(r1),r8
    45e0:	9c 40 00 00 	l.addi r2,r0,0
    45e4:	a8 fe 00 00 	l.ori r7,r30,0x0
    45e8:	03 ff fe d4 	l.j 4138 <_vfiprintf_r+0xe0>
    45ec:	d4 01 10 30 	l.sw 48(r1),r2
    45f0:	9c a0 00 01 	l.addi r5,r0,1
    45f4:	9d a0 00 2b 	l.addi r13,r0,43
    45f8:	03 ff ff 06 	l.j 4210 <_vfiprintf_r+0x1b8>
    45fc:	aa 58 00 00 	l.ori r18,r24,0x0
    4600:	ab 9c 00 80 	l.ori r28,r28,0x80
    4604:	03 ff ff 03 	l.j 4210 <_vfiprintf_r+0x1b8>
    4608:	aa 58 00 00 	l.ori r18,r24,0x0
    460c:	a9 78 00 00 	l.ori r11,r24,0x0
    4610:	9c 40 00 00 	l.addi r2,r0,0
    4614:	9c 64 ff d0 	l.addi r3,r4,-48
    4618:	e0 42 10 00 	l.add r2,r2,r2
    461c:	90 8b 00 00 	l.lbs r4,0(r11)
    4620:	b9 62 00 02 	l.slli r11,r2,0x2
    4624:	9f 18 00 01 	l.addi r24,r24,1
    4628:	e0 42 58 00 	l.add r2,r2,r11
    462c:	e0 43 10 00 	l.add r2,r3,r2
    4630:	9c 64 ff d0 	l.addi r3,r4,-48
    4634:	bc a3 00 09 	l.sfleui r3,9
    4638:	13 ff ff f8 	l.bf 4618 <_vfiprintf_r+0x5c0>
    463c:	a9 78 00 00 	l.ori r11,r24,0x0
    4640:	03 ff fe f7 	l.j 421c <_vfiprintf_r+0x1c4>
    4644:	9c 64 ff e0 	l.addi r3,r4,-32
    4648:	bc 05 00 00 	l.sfeqi r5,0
    464c:	0c 00 03 7b 	l.bnf 5438 <_vfiprintf_r+0x13e0>
    4650:	15 00 00 00 	l.nop 0x0
    4654:	ab 9c 00 10 	l.ori r28,r28,0x10
    4658:	a4 7c 00 10 	l.andi r3,r28,0x10
    465c:	bc 03 00 00 	l.sfeqi r3,0
    4660:	10 00 02 98 	l.bf 50c0 <_vfiprintf_r+0x1068>
    4664:	a4 7c 00 40 	l.andi r3,r28,0x40
    4668:	85 01 00 1c 	l.lwz r8,28(r1)
    466c:	9e 88 00 04 	l.addi r20,r8,4
    4670:	87 48 00 00 	l.lwz r26,0(r8)
    4674:	bd 9a 00 00 	l.sfltsi r26,0
    4678:	10 00 02 f5 	l.bf 524c <_vfiprintf_r+0x11f4>
    467c:	bd 86 00 00 	l.sfltsi r6,0
    4680:	10 00 03 7c 	l.bf 5470 <_vfiprintf_r+0x1418>
    4684:	e0 60 d0 02 	l.sub r3,r0,r26
    4688:	9c 80 ff 7f 	l.addi r4,r0,-129
    468c:	e0 63 d0 04 	l.or r3,r3,r26
    4690:	bd 83 00 00 	l.sfltsi r3,0
    4694:	10 00 03 77 	l.bf 5470 <_vfiprintf_r+0x1418>
    4698:	e3 9c 20 03 	l.and r28,r28,r4
    469c:	e0 60 30 02 	l.sub r3,r0,r6
    46a0:	e0 63 30 04 	l.or r3,r3,r6
    46a4:	bd 83 00 00 	l.sfltsi r3,0
    46a8:	10 00 03 72 	l.bf 5470 <_vfiprintf_r+0x1418>
    46ac:	15 00 00 00 	l.nop 0x0
    46b0:	90 a1 00 29 	l.lbs r5,41(r1)
    46b4:	03 ff ff 32 	l.j 437c <_vfiprintf_r+0x324>
    46b8:	d4 01 a0 1c 	l.sw 28(r1),r20
    46bc:	bc 05 00 00 	l.sfeqi r5,0
    46c0:	0c 00 03 6a 	l.bnf 5468 <_vfiprintf_r+0x1410>
    46c4:	15 00 00 00 	l.nop 0x0
    46c8:	ab 9c 00 10 	l.ori r28,r28,0x10
    46cc:	a4 9c 00 10 	l.andi r4,r28,0x10
    46d0:	bc 04 00 00 	l.sfeqi r4,0
    46d4:	0c 00 00 f7 	l.bnf 4ab0 <_vfiprintf_r+0xa58>
    46d8:	9c 60 00 00 	l.addi r3,r0,0
    46dc:	a4 7c 00 40 	l.andi r3,r28,0x40
    46e0:	bc 03 00 00 	l.sfeqi r3,0
    46e4:	10 00 02 36 	l.bf 4fbc <_vfiprintf_r+0xf64>
    46e8:	85 01 00 1c 	l.lwz r8,28(r1)
    46ec:	d8 01 20 29 	l.sb 41(r1),r4
    46f0:	84 68 00 00 	l.lwz r3,0(r8)
    46f4:	bd 66 00 00 	l.sfgesi r6,0
    46f8:	9d 68 00 04 	l.addi r11,r8,4
    46fc:	0c 00 00 fe 	l.bnf 4af4 <_vfiprintf_r+0xa9c>
    4700:	a4 63 ff ff 	l.andi r3,r3,0xffff
    4704:	e0 80 18 02 	l.sub r4,r0,r3
    4708:	9d 00 ff 7f 	l.addi r8,r0,-129
    470c:	e0 84 18 04 	l.or r4,r4,r3
    4710:	bd 84 00 00 	l.sfltsi r4,0
    4714:	10 00 00 f8 	l.bf 4af4 <_vfiprintf_r+0xa9c>
    4718:	e3 9c 40 03 	l.and r28,r28,r8
    471c:	e0 80 30 02 	l.sub r4,r0,r6
    4720:	e0 84 30 04 	l.or r4,r4,r6
    4724:	bd 64 00 00 	l.sfgesi r4,0
    4728:	0c 00 00 f3 	l.bnf 4af4 <_vfiprintf_r+0xa9c>
    472c:	d4 01 58 1c 	l.sw 28(r1),r11
    4730:	a4 7c 00 01 	l.andi r3,r28,0x1
    4734:	bc 23 00 00 	l.sfnei r3,0
    4738:	10 00 02 35 	l.bf 500c <_vfiprintf_r+0xfb4>
    473c:	15 00 00 00 	l.nop 0x0
    4740:	a8 a3 00 00 	l.ori r5,r3,0x0
    4744:	aa 5e 00 00 	l.ori r18,r30,0x0
    4748:	03 ff ff 10 	l.j 4388 <_vfiprintf_r+0x330>
    474c:	ab 43 00 00 	l.ori r26,r3,0x0
    4750:	bc 05 00 00 	l.sfeqi r5,0
    4754:	0c 00 03 43 	l.bnf 5460 <_vfiprintf_r+0x1408>
    4758:	15 00 00 00 	l.nop 0x0
    475c:	ab 9c 00 10 	l.ori r28,r28,0x10
    4760:	a4 bc 00 10 	l.andi r5,r28,0x10
    4764:	bc 05 00 00 	l.sfeqi r5,0
    4768:	0c 00 02 2f 	l.bnf 5024 <_vfiprintf_r+0xfcc>
    476c:	85 01 00 1c 	l.lwz r8,28(r1)
    4770:	a4 7c 00 40 	l.andi r3,r28,0x40
    4774:	bc 03 00 00 	l.sfeqi r3,0
    4778:	10 00 01 fe 	l.bf 4f70 <_vfiprintf_r+0xf18>
    477c:	bd 86 00 00 	l.sfltsi r6,0
    4780:	85 01 00 1c 	l.lwz r8,28(r1)
    4784:	d8 01 28 29 	l.sb 41(r1),r5
    4788:	87 48 00 00 	l.lwz r26,0(r8)
    478c:	bd 66 00 00 	l.sfgesi r6,0
    4790:	9e 88 00 04 	l.addi r20,r8,4
    4794:	0c 00 02 02 	l.bnf 4f9c <_vfiprintf_r+0xf44>
    4798:	a7 5a ff ff 	l.andi r26,r26,0xffff
    479c:	e0 60 d0 02 	l.sub r3,r0,r26
    47a0:	9d 00 ff 7f 	l.addi r8,r0,-129
    47a4:	e0 63 d0 04 	l.or r3,r3,r26
    47a8:	bd 83 00 00 	l.sfltsi r3,0
    47ac:	10 00 01 fb 	l.bf 4f98 <_vfiprintf_r+0xf40>
    47b0:	e3 9c 40 03 	l.and r28,r28,r8
    47b4:	e0 60 30 02 	l.sub r3,r0,r6
    47b8:	e0 63 30 04 	l.or r3,r3,r6
    47bc:	b8 63 00 5f 	l.srli r3,r3,0x1f
    47c0:	bc 23 00 00 	l.sfnei r3,0
    47c4:	10 00 01 f5 	l.bf 4f98 <_vfiprintf_r+0xf40>
    47c8:	a8 a3 00 00 	l.ori r5,r3,0x0
    47cc:	03 ff fe ec 	l.j 437c <_vfiprintf_r+0x324>
    47d0:	d4 01 a0 1c 	l.sw 28(r1),r20
    47d4:	bc 05 00 00 	l.sfeqi r5,0
    47d8:	0c 00 03 20 	l.bnf 5458 <_vfiprintf_r+0x1400>
    47dc:	15 00 00 00 	l.nop 0x0
    47e0:	a4 7c 00 10 	l.andi r3,r28,0x10
    47e4:	19 60 00 01 	l.movhi r11,0x1
    47e8:	bc 03 00 00 	l.sfeqi r3,0
    47ec:	10 00 00 7f 	l.bf 49e8 <_vfiprintf_r+0x990>
    47f0:	a9 6b 29 12 	l.ori r11,r11,0x2912
    47f4:	85 01 00 1c 	l.lwz r8,28(r1)
    47f8:	84 68 00 00 	l.lwz r3,0(r8)
    47fc:	9d 08 00 04 	l.addi r8,r8,4
    4800:	d4 01 40 1c 	l.sw 28(r1),r8
    4804:	a4 bc 00 01 	l.andi r5,r28,0x1
    4808:	bc 25 00 00 	l.sfnei r5,0
    480c:	0c 00 02 14 	l.bnf 505c <_vfiprintf_r+0x1004>
    4810:	bd 86 00 00 	l.sfltsi r6,0
    4814:	bc 23 00 00 	l.sfnei r3,0
    4818:	10 00 02 6a 	l.bf 51c0 <_vfiprintf_r+0x1168>
    481c:	9d 00 00 00 	l.addi r8,r0,0
    4820:	bd 86 00 00 	l.sfltsi r6,0
    4824:	10 00 00 07 	l.bf 4840 <_vfiprintf_r+0x7e8>
    4828:	d8 01 18 29 	l.sb 41(r1),r3
    482c:	9d 00 ff 7f 	l.addi r8,r0,-129
    4830:	bc 26 00 00 	l.sfnei r6,0
    4834:	a8 a6 00 00 	l.ori r5,r6,0x0
    4838:	0f ff fe d1 	l.bnf 437c <_vfiprintf_r+0x324>
    483c:	e3 9c 40 03 	l.and r28,r28,r8
    4840:	aa 5e 00 00 	l.ori r18,r30,0x0
    4844:	a4 83 00 0f 	l.andi r4,r3,0xf
    4848:	b8 63 00 44 	l.srli r3,r3,0x4
    484c:	e0 8b 20 00 	l.add r4,r11,r4
    4850:	9e 52 ff ff 	l.addi r18,r18,-1
    4854:	8c 84 00 00 	l.lbz r4,0(r4)
    4858:	bc 23 00 00 	l.sfnei r3,0
    485c:	13 ff ff fa 	l.bf 4844 <_vfiprintf_r+0x7ec>
    4860:	d8 12 20 00 	l.sb 0(r18),r4
    4864:	e3 5e 90 02 	l.sub r26,r30,r18
    4868:	03 ff fe c8 	l.j 4388 <_vfiprintf_r+0x330>
    486c:	a8 a3 00 00 	l.ori r5,r3,0x0
    4870:	85 01 00 1c 	l.lwz r8,28(r1)
    4874:	9e 80 00 01 	l.addi r20,r0,1
    4878:	84 68 00 00 	l.lwz r3,0(r8)
    487c:	9d 08 00 04 	l.addi r8,r8,4
    4880:	d8 01 18 38 	l.sb 56(r1),r3
    4884:	9c 60 00 00 	l.addi r3,r0,0
    4888:	d4 01 40 1c 	l.sw 28(r1),r8
    488c:	d8 01 18 29 	l.sb 41(r1),r3
    4890:	ab 54 00 00 	l.ori r26,r20,0x0
    4894:	9e 41 00 38 	l.addi r18,r1,56
    4898:	03 ff fe c4 	l.j 43a8 <_vfiprintf_r+0x350>
    489c:	9c c0 00 00 	l.addi r6,r0,0
    48a0:	bc 05 00 00 	l.sfeqi r5,0
    48a4:	13 ff ff 6e 	l.bf 465c <_vfiprintf_r+0x604>
    48a8:	a4 7c 00 10 	l.andi r3,r28,0x10
    48ac:	03 ff ff 6c 	l.j 465c <_vfiprintf_r+0x604>
    48b0:	d8 01 68 29 	l.sb 41(r1),r13
    48b4:	85 01 00 1c 	l.lwz r8,28(r1)
    48b8:	9c 60 00 00 	l.addi r3,r0,0
    48bc:	86 48 00 00 	l.lwz r18,0(r8)
    48c0:	d8 01 18 29 	l.sb 41(r1),r3
    48c4:	bc 32 00 00 	l.sfnei r18,0
    48c8:	0c 00 02 b3 	l.bnf 5394 <_vfiprintf_r+0x133c>
    48cc:	9d 08 00 04 	l.addi r8,r8,4
    48d0:	bd 86 00 00 	l.sfltsi r6,0
    48d4:	10 00 02 92 	l.bf 531c <_vfiprintf_r+0x12c4>
    48d8:	9c 80 00 00 	l.addi r4,r0,0
    48dc:	a8 a6 00 00 	l.ori r5,r6,0x0
    48e0:	a8 72 00 00 	l.ori r3,r18,0x0
    48e4:	d4 01 30 00 	l.sw 0(r1),r6
    48e8:	d4 01 38 10 	l.sw 16(r1),r7
    48ec:	04 00 1b a0 	l.jal b76c <memchr>
    48f0:	d4 01 40 14 	l.sw 20(r1),r8
    48f4:	bc 0b 00 00 	l.sfeqi r11,0
    48f8:	84 c1 00 00 	l.lwz r6,0(r1)
    48fc:	84 e1 00 10 	l.lwz r7,16(r1)
    4900:	10 00 02 bd 	l.bf 53f4 <_vfiprintf_r+0x139c>
    4904:	85 01 00 14 	l.lwz r8,20(r1)
    4908:	e3 4b 90 02 	l.sub r26,r11,r18
    490c:	90 a1 00 29 	l.lbs r5,41(r1)
    4910:	d4 01 40 1c 	l.sw 28(r1),r8
    4914:	03 ff fe 9d 	l.j 4388 <_vfiprintf_r+0x330>
    4918:	9c c0 00 00 	l.addi r6,r0,0
    491c:	bc 05 00 00 	l.sfeqi r5,0
    4920:	13 ff ff 91 	l.bf 4764 <_vfiprintf_r+0x70c>
    4924:	a4 bc 00 10 	l.andi r5,r28,0x10
    4928:	03 ff ff 8f 	l.j 4764 <_vfiprintf_r+0x70c>
    492c:	d8 01 68 29 	l.sb 41(r1),r13
    4930:	90 98 00 00 	l.lbs r4,0(r24)
    4934:	bc 04 00 2a 	l.sfeqi r4,42
    4938:	10 00 02 b6 	l.bf 5410 <_vfiprintf_r+0x13b8>
    493c:	9e 58 00 01 	l.addi r18,r24,1
    4940:	9c 64 ff d0 	l.addi r3,r4,-48
    4944:	aa 32 00 00 	l.ori r17,r18,0x0
    4948:	bc a3 00 09 	l.sfleui r3,9
    494c:	ab 12 00 00 	l.ori r24,r18,0x0
    4950:	0f ff fe 32 	l.bnf 4218 <_vfiprintf_r+0x1c0>
    4954:	9c c0 00 00 	l.addi r6,r0,0
    4958:	e0 c6 30 00 	l.add r6,r6,r6
    495c:	90 91 00 00 	l.lbs r4,0(r17)
    4960:	b9 66 00 02 	l.slli r11,r6,0x2
    4964:	9f 11 00 01 	l.addi r24,r17,1
    4968:	e0 c6 58 00 	l.add r6,r6,r11
    496c:	e0 c6 18 00 	l.add r6,r6,r3
    4970:	9c 64 ff d0 	l.addi r3,r4,-48
    4974:	bc a3 00 09 	l.sfleui r3,9
    4978:	13 ff ff f8 	l.bf 4958 <_vfiprintf_r+0x900>
    497c:	aa 38 00 00 	l.ori r17,r24,0x0
    4980:	bd 66 00 00 	l.sfgesi r6,0
    4984:	13 ff fe 26 	l.bf 421c <_vfiprintf_r+0x1c4>
    4988:	9c 64 ff e0 	l.addi r3,r4,-32
    498c:	03 ff fe 24 	l.j 421c <_vfiprintf_r+0x1c4>
    4990:	9c c0 ff ff 	l.addi r6,r0,-1
    4994:	bc 0d 00 00 	l.sfeqi r13,0
    4998:	0f ff fe 30 	l.bnf 4258 <_vfiprintf_r+0x200>
    499c:	15 00 00 00 	l.nop 0x0
    49a0:	9c a0 00 01 	l.addi r5,r0,1
    49a4:	9d a0 00 20 	l.addi r13,r0,32
    49a8:	03 ff fe 1a 	l.j 4210 <_vfiprintf_r+0x1b8>
    49ac:	aa 58 00 00 	l.ori r18,r24,0x0
    49b0:	ab 9c 00 01 	l.ori r28,r28,0x1
    49b4:	03 ff fe 17 	l.j 4210 <_vfiprintf_r+0x1b8>
    49b8:	aa 58 00 00 	l.ori r18,r24,0x0
    49bc:	ab 9c 00 40 	l.ori r28,r28,0x40
    49c0:	03 ff fe 14 	l.j 4210 <_vfiprintf_r+0x1b8>
    49c4:	aa 58 00 00 	l.ori r18,r24,0x0
    49c8:	bc 05 00 00 	l.sfeqi r5,0
    49cc:	0c 00 02 9f 	l.bnf 5448 <_vfiprintf_r+0x13f0>
    49d0:	15 00 00 00 	l.nop 0x0
    49d4:	a4 7c 00 10 	l.andi r3,r28,0x10
    49d8:	19 60 00 01 	l.movhi r11,0x1
    49dc:	bc 03 00 00 	l.sfeqi r3,0
    49e0:	0f ff ff 85 	l.bnf 47f4 <_vfiprintf_r+0x79c>
    49e4:	a9 6b 29 23 	l.ori r11,r11,0x2923
    49e8:	85 01 00 1c 	l.lwz r8,28(r1)
    49ec:	a4 7c 00 40 	l.andi r3,r28,0x40
    49f0:	9d 08 00 04 	l.addi r8,r8,4
    49f4:	bc 03 00 00 	l.sfeqi r3,0
    49f8:	84 68 ff fc 	l.lwz r3,-4(r8)
    49fc:	13 ff ff 82 	l.bf 4804 <_vfiprintf_r+0x7ac>
    4a00:	d4 01 40 1c 	l.sw 28(r1),r8
    4a04:	03 ff ff 80 	l.j 4804 <_vfiprintf_r+0x7ac>
    4a08:	a4 63 ff ff 	l.andi r3,r3,0xffff
    4a0c:	bc 05 00 00 	l.sfeqi r5,0
    4a10:	0c 00 02 8c 	l.bnf 5440 <_vfiprintf_r+0x13e8>
    4a14:	15 00 00 00 	l.nop 0x0
    4a18:	a4 5c 00 10 	l.andi r2,r28,0x10
    4a1c:	bc 02 00 00 	l.sfeqi r2,0
    4a20:	0c 00 00 1e 	l.bnf 4a98 <_vfiprintf_r+0xa40>
    4a24:	85 01 00 1c 	l.lwz r8,28(r1)
    4a28:	a5 fc 00 40 	l.andi r15,r28,0x40
    4a2c:	bc 0f 00 00 	l.sfeqi r15,0
    4a30:	10 00 00 1a 	l.bf 4a98 <_vfiprintf_r+0xa40>
    4a34:	15 00 00 00 	l.nop 0x0
    4a38:	84 48 00 00 	l.lwz r2,0(r8)
    4a3c:	9d 08 00 04 	l.addi r8,r8,4
    4a40:	d4 01 40 1c 	l.sw 28(r1),r8
    4a44:	85 01 00 20 	l.lwz r8,32(r1)
    4a48:	03 ff fd bc 	l.j 4138 <_vfiprintf_r+0xe0>
    4a4c:	dc 02 40 00 	l.sh 0(r2),r8
    4a50:	bc 05 00 00 	l.sfeqi r5,0
    4a54:	13 ff ff 1f 	l.bf 46d0 <_vfiprintf_r+0x678>
    4a58:	a4 9c 00 10 	l.andi r4,r28,0x10
    4a5c:	03 ff ff 1d 	l.j 46d0 <_vfiprintf_r+0x678>
    4a60:	d8 01 68 29 	l.sb 41(r1),r13
    4a64:	bc 05 00 00 	l.sfeqi r5,0
    4a68:	0c 00 02 7a 	l.bnf 5450 <_vfiprintf_r+0x13f8>
    4a6c:	15 00 00 00 	l.nop 0x0
    4a70:	bc 04 00 00 	l.sfeqi r4,0
    4a74:	10 00 02 21 	l.bf 52f8 <_vfiprintf_r+0x12a0>
    4a78:	9e 80 00 01 	l.addi r20,r0,1
    4a7c:	9d 00 00 00 	l.addi r8,r0,0
    4a80:	d8 01 20 38 	l.sb 56(r1),r4
    4a84:	d8 01 40 29 	l.sb 41(r1),r8
    4a88:	ab 54 00 00 	l.ori r26,r20,0x0
    4a8c:	9e 41 00 38 	l.addi r18,r1,56
    4a90:	03 ff fe 46 	l.j 43a8 <_vfiprintf_r+0x350>
    4a94:	9c c0 00 00 	l.addi r6,r0,0
    4a98:	84 48 00 00 	l.lwz r2,0(r8)
    4a9c:	9d 08 00 04 	l.addi r8,r8,4
    4aa0:	d4 01 40 1c 	l.sw 28(r1),r8
    4aa4:	85 01 00 20 	l.lwz r8,32(r1)
    4aa8:	03 ff fd a4 	l.j 4138 <_vfiprintf_r+0xe0>
    4aac:	d4 02 40 00 	l.sw 0(r2),r8
    4ab0:	85 01 00 1c 	l.lwz r8,28(r1)
    4ab4:	d8 01 18 29 	l.sb 41(r1),r3
    4ab8:	bd 66 00 00 	l.sfgesi r6,0
    4abc:	9d 68 00 04 	l.addi r11,r8,4
    4ac0:	0c 00 00 0d 	l.bnf 4af4 <_vfiprintf_r+0xa9c>
    4ac4:	84 68 00 00 	l.lwz r3,0(r8)
    4ac8:	e0 80 18 02 	l.sub r4,r0,r3
    4acc:	9c a0 ff 7f 	l.addi r5,r0,-129
    4ad0:	e0 84 18 04 	l.or r4,r4,r3
    4ad4:	bd 84 00 00 	l.sfltsi r4,0
    4ad8:	10 00 00 07 	l.bf 4af4 <_vfiprintf_r+0xa9c>
    4adc:	e3 9c 28 03 	l.and r28,r28,r5
    4ae0:	e0 80 30 02 	l.sub r4,r0,r6
    4ae4:	e0 84 30 04 	l.or r4,r4,r6
    4ae8:	bd 84 00 00 	l.sfltsi r4,0
    4aec:	0c 00 01 44 	l.bnf 4ffc <_vfiprintf_r+0xfa4>
    4af0:	15 00 00 00 	l.nop 0x0
    4af4:	a8 be 00 00 	l.ori r5,r30,0x0
    4af8:	a4 83 00 07 	l.andi r4,r3,0x7
    4afc:	b8 63 00 43 	l.srli r3,r3,0x3
    4b00:	9c 84 00 30 	l.addi r4,r4,48
    4b04:	9c a5 ff ff 	l.addi r5,r5,-1
    4b08:	bc 23 00 00 	l.sfnei r3,0
    4b0c:	13 ff ff fb 	l.bf 4af8 <_vfiprintf_r+0xaa0>
    4b10:	d8 05 20 00 	l.sb 0(r5),r4
    4b14:	ac 84 00 30 	l.xori r4,r4,48
    4b18:	a4 84 00 ff 	l.andi r4,r4,0xff
    4b1c:	bc 04 00 00 	l.sfeqi r4,0
    4b20:	10 00 01 f1 	l.bf 52e4 <_vfiprintf_r+0x128c>
    4b24:	a4 9c 00 01 	l.andi r4,r28,0x1
    4b28:	bc 24 00 00 	l.sfnei r4,0
    4b2c:	0c 00 01 ee 	l.bnf 52e4 <_vfiprintf_r+0x128c>
    4b30:	9c 80 00 30 	l.addi r4,r0,48
    4b34:	9e 45 ff ff 	l.addi r18,r5,-1
    4b38:	e3 5e 90 02 	l.sub r26,r30,r18
    4b3c:	db e5 27 ff 	l.sb -1(r5),r4
    4b40:	d4 01 58 1c 	l.sw 28(r1),r11
    4b44:	03 ff fe 11 	l.j 4388 <_vfiprintf_r+0x330>
    4b48:	a8 a3 00 00 	l.ori r5,r3,0x0
    4b4c:	9c a1 00 2c 	l.addi r5,r1,44
    4b50:	a8 8e 00 00 	l.ori r4,r14,0x0
    4b54:	a8 76 00 00 	l.ori r3,r22,0x0
    4b58:	d4 01 30 00 	l.sw 0(r1),r6
    4b5c:	d4 01 68 08 	l.sw 8(r1),r13
    4b60:	d4 01 88 04 	l.sw 4(r1),r17
    4b64:	d4 01 98 10 	l.sw 16(r1),r19
    4b68:	d4 01 a8 0c 	l.sw 12(r1),r21
    4b6c:	07 ff fc e3 	l.jal 3ef8 <__sprint_r.part.0>
    4b70:	d4 01 b8 14 	l.sw 20(r1),r23
    4b74:	bc 2b 00 00 	l.sfnei r11,0
    4b78:	84 c1 00 00 	l.lwz r6,0(r1)
    4b7c:	85 a1 00 08 	l.lwz r13,8(r1)
    4b80:	86 21 00 04 	l.lwz r17,4(r1)
    4b84:	86 61 00 10 	l.lwz r19,16(r1)
    4b88:	86 a1 00 0c 	l.lwz r21,12(r1)
    4b8c:	10 00 00 9b 	l.bf 4df8 <_vfiprintf_r+0xda0>
    4b90:	86 e1 00 14 	l.lwz r23,20(r1)
    4b94:	85 61 00 30 	l.lwz r11,48(r1)
    4b98:	84 61 00 34 	l.lwz r3,52(r1)
    4b9c:	9c ab 00 01 	l.addi r5,r11,1
    4ba0:	03 ff fe 18 	l.j 4400 <_vfiprintf_r+0x3a8>
    4ba4:	a8 fe 00 00 	l.ori r7,r30,0x0
    4ba8:	84 61 00 34 	l.lwz r3,52(r1)
    4bac:	9d 65 00 01 	l.addi r11,r5,1
    4bb0:	90 81 00 29 	l.lbs r4,41(r1)
    4bb4:	bc 04 00 00 	l.sfeqi r4,0
    4bb8:	13 ff fe 33 	l.bf 4484 <_vfiprintf_r+0x42c>
    4bbc:	bc 15 00 00 	l.sfeqi r21,0
    4bc0:	9c 63 00 01 	l.addi r3,r3,1
    4bc4:	9c 81 00 29 	l.addi r4,r1,41
    4bc8:	9c a0 00 01 	l.addi r5,r0,1
    4bcc:	d4 07 20 00 	l.sw 0(r7),r4
    4bd0:	d4 07 28 04 	l.sw 4(r7),r5
    4bd4:	d4 01 18 34 	l.sw 52(r1),r3
    4bd8:	bd 4b 00 07 	l.sfgtsi r11,7
    4bdc:	0c 00 00 cb 	l.bnf 4f08 <_vfiprintf_r+0xeb0>
    4be0:	d4 01 58 30 	l.sw 48(r1),r11
    4be4:	bc 23 00 00 	l.sfnei r3,0
    4be8:	10 00 01 45 	l.bf 50fc <_vfiprintf_r+0x10a4>
    4bec:	bc 35 00 00 	l.sfnei r21,0
    4bf0:	10 00 00 cc 	l.bf 4f20 <_vfiprintf_r+0xec8>
    4bf4:	15 00 00 00 	l.nop 0x0
    4bf8:	a8 a3 00 00 	l.ori r5,r3,0x0
    4bfc:	9d 60 00 01 	l.addi r11,r0,1
    4c00:	a8 fe 00 00 	l.ori r7,r30,0x0
    4c04:	bc 33 00 80 	l.sfnei r19,128
    4c08:	0f ff fe 32 	l.bnf 44d0 <_vfiprintf_r+0x478>
    4c0c:	e2 22 a0 02 	l.sub r17,r2,r20
    4c10:	e0 c6 d0 02 	l.sub r6,r6,r26
    4c14:	bd a6 00 00 	l.sflesi r6,0
    4c18:	13 ff fe 5b 	l.bf 4584 <_vfiprintf_r+0x52c>
    4c1c:	15 00 00 00 	l.nop 0x0
    4c20:	19 a0 00 01 	l.movhi r13,0x1
    4c24:	bd a6 00 10 	l.sflesi r6,16
    4c28:	10 00 00 1b 	l.bf 4c94 <_vfiprintf_r+0xc3c>
    4c2c:	a9 ad 2a a0 	l.ori r13,r13,0x2aa0
    4c30:	00 00 00 09 	l.j 4c54 <_vfiprintf_r+0xbfc>
    4c34:	9e 20 00 10 	l.addi r17,r0,16
    4c38:	9d 65 00 02 	l.addi r11,r5,2
    4c3c:	9c e7 00 08 	l.addi r7,r7,8
    4c40:	a8 a4 00 00 	l.ori r5,r4,0x0
    4c44:	9c c6 ff f0 	l.addi r6,r6,-16
    4c48:	bd 46 00 10 	l.sfgtsi r6,16
    4c4c:	0c 00 00 12 	l.bnf 4c94 <_vfiprintf_r+0xc3c>
    4c50:	15 00 00 00 	l.nop 0x0
    4c54:	9c 85 00 01 	l.addi r4,r5,1
    4c58:	9c 63 00 10 	l.addi r3,r3,16
    4c5c:	d4 07 68 00 	l.sw 0(r7),r13
    4c60:	d4 07 88 04 	l.sw 4(r7),r17
    4c64:	d4 01 18 34 	l.sw 52(r1),r3
    4c68:	bd 44 00 07 	l.sfgtsi r4,7
    4c6c:	0f ff ff f3 	l.bnf 4c38 <_vfiprintf_r+0xbe0>
    4c70:	d4 01 20 30 	l.sw 48(r1),r4
    4c74:	bc 23 00 00 	l.sfnei r3,0
    4c78:	10 00 00 67 	l.bf 4e14 <_vfiprintf_r+0xdbc>
    4c7c:	9d 60 00 01 	l.addi r11,r0,1
    4c80:	9c c6 ff f0 	l.addi r6,r6,-16
    4c84:	bd 46 00 10 	l.sfgtsi r6,16
    4c88:	a8 a3 00 00 	l.ori r5,r3,0x0
    4c8c:	13 ff ff f2 	l.bf 4c54 <_vfiprintf_r+0xbfc>
    4c90:	a8 fe 00 00 	l.ori r7,r30,0x0
    4c94:	e0 63 30 00 	l.add r3,r3,r6
    4c98:	d4 07 68 00 	l.sw 0(r7),r13
    4c9c:	d4 07 30 04 	l.sw 4(r7),r6
    4ca0:	d4 01 18 34 	l.sw 52(r1),r3
    4ca4:	bd 4b 00 07 	l.sfgtsi r11,7
    4ca8:	10 00 00 a8 	l.bf 4f48 <_vfiprintf_r+0xef0>
    4cac:	d4 01 58 30 	l.sw 48(r1),r11
    4cb0:	9c e7 00 08 	l.addi r7,r7,8
    4cb4:	9d 6b 00 01 	l.addi r11,r11,1
    4cb8:	e0 7a 18 00 	l.add r3,r26,r3
    4cbc:	d4 07 90 00 	l.sw 0(r7),r18
    4cc0:	d4 07 d0 04 	l.sw 4(r7),r26
    4cc4:	d4 01 18 34 	l.sw 52(r1),r3
    4cc8:	bd 4b 00 07 	l.sfgtsi r11,7
    4ccc:	13 ff fe 35 	l.bf 45a0 <_vfiprintf_r+0x548>
    4cd0:	d4 01 58 30 	l.sw 48(r1),r11
    4cd4:	9c e7 00 08 	l.addi r7,r7,8
    4cd8:	a5 fc 00 04 	l.andi r15,r28,0x4
    4cdc:	bc 0f 00 00 	l.sfeqi r15,0
    4ce0:	10 00 00 38 	l.bf 4dc0 <_vfiprintf_r+0xd68>
    4ce4:	e5 62 a0 00 	l.sfges r2,r20
    4ce8:	e2 42 a0 02 	l.sub r18,r2,r20
    4cec:	bd b2 00 00 	l.sflesi r18,0
    4cf0:	10 00 00 34 	l.bf 4dc0 <_vfiprintf_r+0xd68>
    4cf4:	e5 62 a0 00 	l.sfges r2,r20
    4cf8:	bd 52 00 10 	l.sfgtsi r18,16
    4cfc:	0c 00 01 b5 	l.bnf 53d0 <_vfiprintf_r+0x1378>
    4d00:	15 00 00 00 	l.nop 0x0
    4d04:	1a 20 00 01 	l.movhi r17,0x1
    4d08:	84 a1 00 30 	l.lwz r5,48(r1)
    4d0c:	aa 31 2a b0 	l.ori r17,r17,0x2ab0
    4d10:	00 00 00 09 	l.j 4d34 <_vfiprintf_r+0xcdc>
    4d14:	9f 40 00 10 	l.addi r26,r0,16
    4d18:	9c c5 00 02 	l.addi r6,r5,2
    4d1c:	9c e7 00 08 	l.addi r7,r7,8
    4d20:	a8 a4 00 00 	l.ori r5,r4,0x0
    4d24:	9e 52 ff f0 	l.addi r18,r18,-16
    4d28:	bd 52 00 10 	l.sfgtsi r18,16
    4d2c:	0c 00 00 12 	l.bnf 4d74 <_vfiprintf_r+0xd1c>
    4d30:	15 00 00 00 	l.nop 0x0
    4d34:	9c 85 00 01 	l.addi r4,r5,1
    4d38:	9c 63 00 10 	l.addi r3,r3,16
    4d3c:	d4 07 88 00 	l.sw 0(r7),r17
    4d40:	d4 07 d0 04 	l.sw 4(r7),r26
    4d44:	d4 01 18 34 	l.sw 52(r1),r3
    4d48:	bd 44 00 07 	l.sfgtsi r4,7
    4d4c:	0f ff ff f3 	l.bnf 4d18 <_vfiprintf_r+0xcc0>
    4d50:	d4 01 20 30 	l.sw 48(r1),r4
    4d54:	bc 23 00 00 	l.sfnei r3,0
    4d58:	10 00 00 40 	l.bf 4e58 <_vfiprintf_r+0xe00>
    4d5c:	9c c0 00 01 	l.addi r6,r0,1
    4d60:	9e 52 ff f0 	l.addi r18,r18,-16
    4d64:	bd 52 00 10 	l.sfgtsi r18,16
    4d68:	a8 a3 00 00 	l.ori r5,r3,0x0
    4d6c:	13 ff ff f2 	l.bf 4d34 <_vfiprintf_r+0xcdc>
    4d70:	a8 fe 00 00 	l.ori r7,r30,0x0
    4d74:	e0 63 90 00 	l.add r3,r3,r18
    4d78:	d4 07 88 00 	l.sw 0(r7),r17
    4d7c:	d4 07 90 04 	l.sw 4(r7),r18
    4d80:	d4 01 18 34 	l.sw 52(r1),r3
    4d84:	bd a6 00 07 	l.sflesi r6,7
    4d88:	10 00 00 0d 	l.bf 4dbc <_vfiprintf_r+0xd64>
    4d8c:	d4 01 30 30 	l.sw 48(r1),r6
    4d90:	bc 23 00 00 	l.sfnei r3,0
    4d94:	0f ff fe 0e 	l.bnf 45cc <_vfiprintf_r+0x574>
    4d98:	e5 62 a0 00 	l.sfges r2,r20
    4d9c:	9c a1 00 2c 	l.addi r5,r1,44
    4da0:	a8 8e 00 00 	l.ori r4,r14,0x0
    4da4:	07 ff fc 55 	l.jal 3ef8 <__sprint_r.part.0>
    4da8:	a8 76 00 00 	l.ori r3,r22,0x0
    4dac:	bc 2b 00 00 	l.sfnei r11,0
    4db0:	10 00 00 12 	l.bf 4df8 <_vfiprintf_r+0xda0>
    4db4:	15 00 00 00 	l.nop 0x0
    4db8:	84 61 00 34 	l.lwz r3,52(r1)
    4dbc:	e5 62 a0 00 	l.sfges r2,r20
    4dc0:	10 00 00 03 	l.bf 4dcc <_vfiprintf_r+0xd74>
    4dc4:	85 01 00 20 	l.lwz r8,32(r1)
    4dc8:	a8 54 00 00 	l.ori r2,r20,0x0
    4dcc:	bc 23 00 00 	l.sfnei r3,0
    4dd0:	e1 08 10 00 	l.add r8,r8,r2
    4dd4:	0f ff fe 03 	l.bnf 45e0 <_vfiprintf_r+0x588>
    4dd8:	d4 01 40 20 	l.sw 32(r1),r8
    4ddc:	9c a1 00 2c 	l.addi r5,r1,44
    4de0:	a8 8e 00 00 	l.ori r4,r14,0x0
    4de4:	07 ff fc 45 	l.jal 3ef8 <__sprint_r.part.0>
    4de8:	a8 76 00 00 	l.ori r3,r22,0x0
    4dec:	bc 2b 00 00 	l.sfnei r11,0
    4df0:	0f ff fd fd 	l.bnf 45e4 <_vfiprintf_r+0x58c>
    4df4:	9c 40 00 00 	l.addi r2,r0,0
    4df8:	94 4e 00 0c 	l.lhz r2,12(r14)
    4dfc:	a4 42 00 40 	l.andi r2,r2,0x40
    4e00:	bc 22 00 00 	l.sfnei r2,0
    4e04:	10 00 01 2d 	l.bf 52b8 <_vfiprintf_r+0x1260>
    4e08:	15 00 00 00 	l.nop 0x0
    4e0c:	03 ff fd 28 	l.j 42ac <_vfiprintf_r+0x254>
    4e10:	85 61 00 20 	l.lwz r11,32(r1)
    4e14:	9c a1 00 2c 	l.addi r5,r1,44
    4e18:	a8 8e 00 00 	l.ori r4,r14,0x0
    4e1c:	a8 76 00 00 	l.ori r3,r22,0x0
    4e20:	d4 01 30 00 	l.sw 0(r1),r6
    4e24:	d4 01 68 08 	l.sw 8(r1),r13
    4e28:	07 ff fc 34 	l.jal 3ef8 <__sprint_r.part.0>
    4e2c:	d4 01 88 04 	l.sw 4(r1),r17
    4e30:	bc 2b 00 00 	l.sfnei r11,0
    4e34:	84 c1 00 00 	l.lwz r6,0(r1)
    4e38:	85 a1 00 08 	l.lwz r13,8(r1)
    4e3c:	13 ff ff ef 	l.bf 4df8 <_vfiprintf_r+0xda0>
    4e40:	86 21 00 04 	l.lwz r17,4(r1)
    4e44:	84 a1 00 30 	l.lwz r5,48(r1)
    4e48:	84 61 00 34 	l.lwz r3,52(r1)
    4e4c:	9d 65 00 01 	l.addi r11,r5,1
    4e50:	03 ff ff 7d 	l.j 4c44 <_vfiprintf_r+0xbec>
    4e54:	a8 fe 00 00 	l.ori r7,r30,0x0
    4e58:	9c a1 00 2c 	l.addi r5,r1,44
    4e5c:	a8 8e 00 00 	l.ori r4,r14,0x0
    4e60:	a8 76 00 00 	l.ori r3,r22,0x0
    4e64:	07 ff fc 25 	l.jal 3ef8 <__sprint_r.part.0>
    4e68:	d4 01 88 04 	l.sw 4(r1),r17
    4e6c:	bc 2b 00 00 	l.sfnei r11,0
    4e70:	13 ff ff e2 	l.bf 4df8 <_vfiprintf_r+0xda0>
    4e74:	86 21 00 04 	l.lwz r17,4(r1)
    4e78:	84 a1 00 30 	l.lwz r5,48(r1)
    4e7c:	84 61 00 34 	l.lwz r3,52(r1)
    4e80:	9c c5 00 01 	l.addi r6,r5,1
    4e84:	03 ff ff a8 	l.j 4d24 <_vfiprintf_r+0xccc>
    4e88:	a8 fe 00 00 	l.ori r7,r30,0x0
    4e8c:	9c a1 00 2c 	l.addi r5,r1,44
    4e90:	a8 8e 00 00 	l.ori r4,r14,0x0
    4e94:	a8 76 00 00 	l.ori r3,r22,0x0
    4e98:	d4 01 30 00 	l.sw 0(r1),r6
    4e9c:	d4 01 68 08 	l.sw 8(r1),r13
    4ea0:	d4 01 88 04 	l.sw 4(r1),r17
    4ea4:	07 ff fc 15 	l.jal 3ef8 <__sprint_r.part.0>
    4ea8:	d4 01 a8 0c 	l.sw 12(r1),r21
    4eac:	bc 2b 00 00 	l.sfnei r11,0
    4eb0:	84 c1 00 00 	l.lwz r6,0(r1)
    4eb4:	85 a1 00 08 	l.lwz r13,8(r1)
    4eb8:	86 21 00 04 	l.lwz r17,4(r1)
    4ebc:	13 ff ff cf 	l.bf 4df8 <_vfiprintf_r+0xda0>
    4ec0:	86 a1 00 0c 	l.lwz r21,12(r1)
    4ec4:	84 a1 00 30 	l.lwz r5,48(r1)
    4ec8:	84 61 00 34 	l.lwz r3,52(r1)
    4ecc:	9e 65 00 01 	l.addi r19,r5,1
    4ed0:	03 ff fd 8c 	l.j 4500 <_vfiprintf_r+0x4a8>
    4ed4:	a8 fe 00 00 	l.ori r7,r30,0x0
    4ed8:	bc 23 00 00 	l.sfnei r3,0
    4edc:	10 00 00 e6 	l.bf 5274 <_vfiprintf_r+0x121c>
    4ee0:	90 81 00 29 	l.lbs r4,41(r1)
    4ee4:	bc 24 00 00 	l.sfnei r4,0
    4ee8:	0c 00 00 0c 	l.bnf 4f18 <_vfiprintf_r+0xec0>
    4eec:	bc 35 00 00 	l.sfnei r21,0
    4ef0:	9d 60 00 01 	l.addi r11,r0,1
    4ef4:	9c 61 00 29 	l.addi r3,r1,41
    4ef8:	d4 01 58 64 	l.sw 100(r1),r11
    4efc:	d4 01 18 60 	l.sw 96(r1),r3
    4f00:	a8 fe 00 00 	l.ori r7,r30,0x0
    4f04:	a8 6b 00 00 	l.ori r3,r11,0x0
    4f08:	a8 ab 00 00 	l.ori r5,r11,0x0
    4f0c:	9c e7 00 08 	l.addi r7,r7,8
    4f10:	03 ff fd 5c 	l.j 4480 <_vfiprintf_r+0x428>
    4f14:	9d 6b 00 01 	l.addi r11,r11,1
    4f18:	0c 00 00 ea 	l.bnf 52c0 <_vfiprintf_r+0x1268>
    4f1c:	15 00 00 00 	l.nop 0x0
    4f20:	9c 60 00 02 	l.addi r3,r0,2
    4f24:	9c 81 00 2a 	l.addi r4,r1,42
    4f28:	d4 01 18 64 	l.sw 100(r1),r3
    4f2c:	d4 01 20 60 	l.sw 96(r1),r4
    4f30:	9d 60 00 01 	l.addi r11,r0,1
    4f34:	a8 fe 00 00 	l.ori r7,r30,0x0
    4f38:	a8 ab 00 00 	l.ori r5,r11,0x0
    4f3c:	9c e7 00 08 	l.addi r7,r7,8
    4f40:	03 ff ff 31 	l.j 4c04 <_vfiprintf_r+0xbac>
    4f44:	9d 6b 00 01 	l.addi r11,r11,1
    4f48:	bc 23 00 00 	l.sfnei r3,0
    4f4c:	10 00 00 92 	l.bf 5194 <_vfiprintf_r+0x113c>
    4f50:	9c 80 00 01 	l.addi r4,r0,1
    4f54:	a8 7a 00 00 	l.ori r3,r26,0x0
    4f58:	d4 01 90 60 	l.sw 96(r1),r18
    4f5c:	d4 01 d0 64 	l.sw 100(r1),r26
    4f60:	d4 01 d0 34 	l.sw 52(r1),r26
    4f64:	d4 01 20 30 	l.sw 48(r1),r4
    4f68:	03 ff ff 5b 	l.j 4cd4 <_vfiprintf_r+0xc7c>
    4f6c:	a8 fe 00 00 	l.ori r7,r30,0x0
    4f70:	d8 01 18 29 	l.sb 41(r1),r3
    4f74:	9e 88 00 04 	l.addi r20,r8,4
    4f78:	10 00 01 03 	l.bf 5384 <_vfiprintf_r+0x132c>
    4f7c:	87 48 00 00 	l.lwz r26,0(r8)
    4f80:	e0 60 d0 02 	l.sub r3,r0,r26
    4f84:	9c 80 ff 7f 	l.addi r4,r0,-129
    4f88:	e0 63 d0 04 	l.or r3,r3,r26
    4f8c:	bd 83 00 00 	l.sfltsi r3,0
    4f90:	0f ff fe 09 	l.bnf 47b4 <_vfiprintf_r+0x75c>
    4f94:	e3 9c 20 03 	l.and r28,r28,r4
    4f98:	9c a0 00 00 	l.addi r5,r0,0
    4f9c:	bc 5a 00 09 	l.sfgtui r26,9
    4fa0:	10 00 00 95 	l.bf 51f4 <_vfiprintf_r+0x119c>
    4fa4:	9c 7a 00 30 	l.addi r3,r26,48
    4fa8:	d4 01 a0 1c 	l.sw 28(r1),r20
    4fac:	87 41 00 24 	l.lwz r26,36(r1)
    4fb0:	d8 01 18 5f 	l.sb 95(r1),r3
    4fb4:	03 ff fc f5 	l.j 4388 <_vfiprintf_r+0x330>
    4fb8:	9e 41 00 5f 	l.addi r18,r1,95
    4fbc:	d8 01 18 29 	l.sb 41(r1),r3
    4fc0:	bd 86 00 00 	l.sfltsi r6,0
    4fc4:	9d 68 00 04 	l.addi r11,r8,4
    4fc8:	13 ff fe cb 	l.bf 4af4 <_vfiprintf_r+0xa9c>
    4fcc:	84 68 00 00 	l.lwz r3,0(r8)
    4fd0:	e0 80 30 02 	l.sub r4,r0,r6
    4fd4:	9c a0 ff 7f 	l.addi r5,r0,-129
    4fd8:	e0 84 30 04 	l.or r4,r4,r6
    4fdc:	bd 84 00 00 	l.sfltsi r4,0
    4fe0:	13 ff fe c5 	l.bf 4af4 <_vfiprintf_r+0xa9c>
    4fe4:	e3 9c 28 03 	l.and r28,r28,r5
    4fe8:	e0 80 18 02 	l.sub r4,r0,r3
    4fec:	e0 84 18 04 	l.or r4,r4,r3
    4ff0:	bd 84 00 00 	l.sfltsi r4,0
    4ff4:	13 ff fe c0 	l.bf 4af4 <_vfiprintf_r+0xa9c>
    4ff8:	15 00 00 00 	l.nop 0x0
    4ffc:	a4 7c 00 01 	l.andi r3,r28,0x1
    5000:	bc 23 00 00 	l.sfnei r3,0
    5004:	0f ff fd cf 	l.bnf 4740 <_vfiprintf_r+0x6e8>
    5008:	d4 01 58 1c 	l.sw 28(r1),r11
    500c:	9c a0 00 30 	l.addi r5,r0,48
    5010:	87 41 00 24 	l.lwz r26,36(r1)
    5014:	d8 01 28 5f 	l.sb 95(r1),r5
    5018:	9e 41 00 5f 	l.addi r18,r1,95
    501c:	03 ff fc db 	l.j 4388 <_vfiprintf_r+0x330>
    5020:	9c a0 00 00 	l.addi r5,r0,0
    5024:	9c a0 00 00 	l.addi r5,r0,0
    5028:	d8 01 28 29 	l.sb 41(r1),r5
    502c:	bd 66 00 00 	l.sfgesi r6,0
    5030:	9e 88 00 04 	l.addi r20,r8,4
    5034:	0f ff ff d9 	l.bnf 4f98 <_vfiprintf_r+0xf40>
    5038:	87 48 00 00 	l.lwz r26,0(r8)
    503c:	e0 60 d0 02 	l.sub r3,r0,r26
    5040:	9c a0 ff 7f 	l.addi r5,r0,-129
    5044:	e0 63 d0 04 	l.or r3,r3,r26
    5048:	bd 83 00 00 	l.sfltsi r3,0
    504c:	0f ff fd da 	l.bnf 47b4 <_vfiprintf_r+0x75c>
    5050:	e3 9c 28 03 	l.and r28,r28,r5
    5054:	03 ff ff d2 	l.j 4f9c <_vfiprintf_r+0xf44>
    5058:	9c a0 00 00 	l.addi r5,r0,0
    505c:	13 ff fd f9 	l.bf 4840 <_vfiprintf_r+0x7e8>
    5060:	d8 01 28 29 	l.sb 41(r1),r5
    5064:	e0 80 30 02 	l.sub r4,r0,r6
    5068:	9c a0 ff 7f 	l.addi r5,r0,-129
    506c:	e0 84 30 04 	l.or r4,r4,r6
    5070:	bd 84 00 00 	l.sfltsi r4,0
    5074:	13 ff fd f3 	l.bf 4840 <_vfiprintf_r+0x7e8>
    5078:	e3 9c 28 03 	l.and r28,r28,r5
    507c:	e0 a0 18 02 	l.sub r5,r0,r3
    5080:	e0 a5 18 04 	l.or r5,r5,r3
    5084:	b8 a5 00 5f 	l.srli r5,r5,0x1f
    5088:	bc 25 00 00 	l.sfnei r5,0
    508c:	0f ff fc bc 	l.bnf 437c <_vfiprintf_r+0x324>
    5090:	aa 5e 00 00 	l.ori r18,r30,0x0
    5094:	03 ff fd ed 	l.j 4848 <_vfiprintf_r+0x7f0>
    5098:	a4 83 00 0f 	l.andi r4,r3,0xf
    509c:	9c a1 00 2c 	l.addi r5,r1,44
    50a0:	a8 8e 00 00 	l.ori r4,r14,0x0
    50a4:	07 ff fb 95 	l.jal 3ef8 <__sprint_r.part.0>
    50a8:	a8 76 00 00 	l.ori r3,r22,0x0
    50ac:	bc 2b 00 00 	l.sfnei r11,0
    50b0:	13 ff ff 52 	l.bf 4df8 <_vfiprintf_r+0xda0>
    50b4:	a8 fe 00 00 	l.ori r7,r30,0x0
    50b8:	03 ff ff 08 	l.j 4cd8 <_vfiprintf_r+0xc80>
    50bc:	84 61 00 34 	l.lwz r3,52(r1)
    50c0:	85 01 00 1c 	l.lwz r8,28(r1)
    50c4:	bc 03 00 00 	l.sfeqi r3,0
    50c8:	10 00 00 69 	l.bf 526c <_vfiprintf_r+0x1214>
    50cc:	9e 88 00 04 	l.addi r20,r8,4
    50d0:	03 ff fd 69 	l.j 4674 <_vfiprintf_r+0x61c>
    50d4:	9b 48 00 02 	l.lhs r26,2(r8)
    50d8:	9c a1 00 2c 	l.addi r5,r1,44
    50dc:	a8 8e 00 00 	l.ori r4,r14,0x0
    50e0:	07 ff fb 86 	l.jal 3ef8 <__sprint_r.part.0>
    50e4:	a8 76 00 00 	l.ori r3,r22,0x0
    50e8:	bc 2b 00 00 	l.sfnei r11,0
    50ec:	13 ff ff 43 	l.bf 4df8 <_vfiprintf_r+0xda0>
    50f0:	a8 fe 00 00 	l.ori r7,r30,0x0
    50f4:	03 ff fc 55 	l.j 4248 <_vfiprintf_r+0x1f0>
    50f8:	85 01 00 20 	l.lwz r8,32(r1)
    50fc:	9c a1 00 2c 	l.addi r5,r1,44
    5100:	a8 8e 00 00 	l.ori r4,r14,0x0
    5104:	a8 76 00 00 	l.ori r3,r22,0x0
    5108:	d4 01 30 00 	l.sw 0(r1),r6
    510c:	d4 01 98 10 	l.sw 16(r1),r19
    5110:	07 ff fb 7a 	l.jal 3ef8 <__sprint_r.part.0>
    5114:	d4 01 a8 0c 	l.sw 12(r1),r21
    5118:	bc 2b 00 00 	l.sfnei r11,0
    511c:	84 c1 00 00 	l.lwz r6,0(r1)
    5120:	86 61 00 10 	l.lwz r19,16(r1)
    5124:	13 ff ff 35 	l.bf 4df8 <_vfiprintf_r+0xda0>
    5128:	86 a1 00 0c 	l.lwz r21,12(r1)
    512c:	84 a1 00 30 	l.lwz r5,48(r1)
    5130:	84 61 00 34 	l.lwz r3,52(r1)
    5134:	9d 65 00 01 	l.addi r11,r5,1
    5138:	03 ff fc d2 	l.j 4480 <_vfiprintf_r+0x428>
    513c:	a8 fe 00 00 	l.ori r7,r30,0x0
    5140:	9c a1 00 2c 	l.addi r5,r1,44
    5144:	a8 8e 00 00 	l.ori r4,r14,0x0
    5148:	a8 76 00 00 	l.ori r3,r22,0x0
    514c:	d4 01 30 00 	l.sw 0(r1),r6
    5150:	07 ff fb 6a 	l.jal 3ef8 <__sprint_r.part.0>
    5154:	d4 01 98 10 	l.sw 16(r1),r19
    5158:	bc 2b 00 00 	l.sfnei r11,0
    515c:	84 c1 00 00 	l.lwz r6,0(r1)
    5160:	13 ff ff 26 	l.bf 4df8 <_vfiprintf_r+0xda0>
    5164:	86 61 00 10 	l.lwz r19,16(r1)
    5168:	84 a1 00 30 	l.lwz r5,48(r1)
    516c:	84 61 00 34 	l.lwz r3,52(r1)
    5170:	9d 65 00 01 	l.addi r11,r5,1
    5174:	03 ff fe a4 	l.j 4c04 <_vfiprintf_r+0xbac>
    5178:	a8 fe 00 00 	l.ori r7,r30,0x0
    517c:	bc 23 00 00 	l.sfnei r3,0
    5180:	10 00 00 70 	l.bf 5340 <_vfiprintf_r+0x12e8>
    5184:	9d 60 00 01 	l.addi r11,r0,1
    5188:	a8 a3 00 00 	l.ori r5,r3,0x0
    518c:	03 ff fe a1 	l.j 4c10 <_vfiprintf_r+0xbb8>
    5190:	a8 fe 00 00 	l.ori r7,r30,0x0
    5194:	9c a1 00 2c 	l.addi r5,r1,44
    5198:	a8 8e 00 00 	l.ori r4,r14,0x0
    519c:	07 ff fb 57 	l.jal 3ef8 <__sprint_r.part.0>
    51a0:	a8 76 00 00 	l.ori r3,r22,0x0
    51a4:	bc 2b 00 00 	l.sfnei r11,0
    51a8:	13 ff ff 14 	l.bf 4df8 <_vfiprintf_r+0xda0>
    51ac:	85 61 00 30 	l.lwz r11,48(r1)
    51b0:	84 61 00 34 	l.lwz r3,52(r1)
    51b4:	9d 6b 00 01 	l.addi r11,r11,1
    51b8:	03 ff fc f3 	l.j 4584 <_vfiprintf_r+0x52c>
    51bc:	a8 fe 00 00 	l.ori r7,r30,0x0
    51c0:	9c a0 00 30 	l.addi r5,r0,48
    51c4:	d8 01 28 2a 	l.sb 42(r1),r5
    51c8:	d8 01 20 2b 	l.sb 43(r1),r4
    51cc:	bd 66 00 00 	l.sfgesi r6,0
    51d0:	0c 00 00 6f 	l.bnf 538c <_vfiprintf_r+0x1334>
    51d4:	d8 01 40 29 	l.sb 41(r1),r8
    51d8:	9c 80 ff 7f 	l.addi r4,r0,-129
    51dc:	e1 fc 20 03 	l.and r15,r28,r4
    51e0:	03 ff fd 98 	l.j 4840 <_vfiprintf_r+0x7e8>
    51e4:	ab 8f 00 02 	l.ori r28,r15,0x2
    51e8:	19 60 00 01 	l.movhi r11,0x1
    51ec:	03 ff fd 95 	l.j 4840 <_vfiprintf_r+0x7e8>
    51f0:	a9 6b 29 23 	l.ori r11,r11,0x2923
    51f4:	aa 5e 00 00 	l.ori r18,r30,0x0
    51f8:	a8 7a 00 00 	l.ori r3,r26,0x0
    51fc:	9c 80 00 0a 	l.addi r4,r0,10
    5200:	d4 01 28 14 	l.sw 20(r1),r5
    5204:	d4 01 30 00 	l.sw 0(r1),r6
    5208:	d4 01 38 10 	l.sw 16(r1),r7
    520c:	04 00 28 d8 	l.jal f56c <__umodsi3>
    5210:	9e 52 ff ff 	l.addi r18,r18,-1
    5214:	9d 6b 00 30 	l.addi r11,r11,48
    5218:	a8 7a 00 00 	l.ori r3,r26,0x0
    521c:	9c 80 00 0a 	l.addi r4,r0,10
    5220:	04 00 28 7b 	l.jal f40c <__udivsi3>
    5224:	d8 12 58 00 	l.sb 0(r18),r11
    5228:	bc 2b 00 00 	l.sfnei r11,0
    522c:	ab 4b 00 00 	l.ori r26,r11,0x0
    5230:	84 a1 00 14 	l.lwz r5,20(r1)
    5234:	84 c1 00 00 	l.lwz r6,0(r1)
    5238:	13 ff ff f0 	l.bf 51f8 <_vfiprintf_r+0x11a0>
    523c:	84 e1 00 10 	l.lwz r7,16(r1)
    5240:	e3 5e 90 02 	l.sub r26,r30,r18
    5244:	03 ff fc 51 	l.j 4388 <_vfiprintf_r+0x330>
    5248:	d4 01 a0 1c 	l.sw 28(r1),r20
    524c:	9c a0 00 2d 	l.addi r5,r0,45
    5250:	d8 01 28 29 	l.sb 41(r1),r5
    5254:	10 00 00 5d 	l.bf 53c8 <_vfiprintf_r+0x1370>
    5258:	e3 40 d0 02 	l.sub r26,r0,r26
    525c:	9d 00 ff 7f 	l.addi r8,r0,-129
    5260:	9c a0 00 2d 	l.addi r5,r0,45
    5264:	03 ff ff 4e 	l.j 4f9c <_vfiprintf_r+0xf44>
    5268:	e3 9c 40 03 	l.and r28,r28,r8
    526c:	03 ff fd 02 	l.j 4674 <_vfiprintf_r+0x61c>
    5270:	87 48 00 00 	l.lwz r26,0(r8)
    5274:	9c a1 00 2c 	l.addi r5,r1,44
    5278:	a8 8e 00 00 	l.ori r4,r14,0x0
    527c:	a8 76 00 00 	l.ori r3,r22,0x0
    5280:	d4 01 30 00 	l.sw 0(r1),r6
    5284:	d4 01 98 10 	l.sw 16(r1),r19
    5288:	07 ff fb 1c 	l.jal 3ef8 <__sprint_r.part.0>
    528c:	d4 01 a8 0c 	l.sw 12(r1),r21
    5290:	bc 2b 00 00 	l.sfnei r11,0
    5294:	84 c1 00 00 	l.lwz r6,0(r1)
    5298:	86 61 00 10 	l.lwz r19,16(r1)
    529c:	13 ff fe d7 	l.bf 4df8 <_vfiprintf_r+0xda0>
    52a0:	86 a1 00 0c 	l.lwz r21,12(r1)
    52a4:	84 a1 00 30 	l.lwz r5,48(r1)
    52a8:	84 61 00 34 	l.lwz r3,52(r1)
    52ac:	9d 65 00 01 	l.addi r11,r5,1
    52b0:	03 ff fe 40 	l.j 4bb0 <_vfiprintf_r+0xb58>
    52b4:	a8 fe 00 00 	l.ori r7,r30,0x0
    52b8:	03 ff fb fd 	l.j 42ac <_vfiprintf_r+0x254>
    52bc:	9d 60 ff ff 	l.addi r11,r0,-1
    52c0:	a8 a3 00 00 	l.ori r5,r3,0x0
    52c4:	9d 60 00 01 	l.addi r11,r0,1
    52c8:	03 ff fe 52 	l.j 4c10 <_vfiprintf_r+0xbb8>
    52cc:	a8 fe 00 00 	l.ori r7,r30,0x0
    52d0:	d4 01 58 1c 	l.sw 28(r1),r11
    52d4:	19 60 00 01 	l.movhi r11,0x1
    52d8:	ab 9c 00 02 	l.ori r28,r28,0x2
    52dc:	03 ff fd 59 	l.j 4840 <_vfiprintf_r+0x7e8>
    52e0:	a9 6b 29 23 	l.ori r11,r11,0x2923
    52e4:	e3 5e 28 02 	l.sub r26,r30,r5
    52e8:	aa 45 00 00 	l.ori r18,r5,0x0
    52ec:	d4 01 58 1c 	l.sw 28(r1),r11
    52f0:	03 ff fc 26 	l.j 4388 <_vfiprintf_r+0x330>
    52f4:	9c a0 00 00 	l.addi r5,r0,0
    52f8:	84 41 00 34 	l.lwz r2,52(r1)
    52fc:	bc 22 00 00 	l.sfnei r2,0
    5300:	0f ff fe be 	l.bnf 4df8 <_vfiprintf_r+0xda0>
    5304:	9c a1 00 2c 	l.addi r5,r1,44
    5308:	a8 8e 00 00 	l.ori r4,r14,0x0
    530c:	07 ff fa fb 	l.jal 3ef8 <__sprint_r.part.0>
    5310:	a8 76 00 00 	l.ori r3,r22,0x0
    5314:	03 ff fe ba 	l.j 4dfc <_vfiprintf_r+0xda4>
    5318:	94 4e 00 0c 	l.lhz r2,12(r14)
    531c:	a8 72 00 00 	l.ori r3,r18,0x0
    5320:	d4 01 38 10 	l.sw 16(r1),r7
    5324:	04 00 22 39 	l.jal dc08 <strlen>
    5328:	d4 01 40 1c 	l.sw 28(r1),r8
    532c:	90 a1 00 29 	l.lbs r5,41(r1)
    5330:	ab 4b 00 00 	l.ori r26,r11,0x0
    5334:	9c c0 00 00 	l.addi r6,r0,0
    5338:	03 ff fc 14 	l.j 4388 <_vfiprintf_r+0x330>
    533c:	84 e1 00 10 	l.lwz r7,16(r1)
    5340:	9c a1 00 2c 	l.addi r5,r1,44
    5344:	a8 8e 00 00 	l.ori r4,r14,0x0
    5348:	a8 76 00 00 	l.ori r3,r22,0x0
    534c:	07 ff fa eb 	l.jal 3ef8 <__sprint_r.part.0>
    5350:	d4 01 30 00 	l.sw 0(r1),r6
    5354:	bc 2b 00 00 	l.sfnei r11,0
    5358:	13 ff fe a8 	l.bf 4df8 <_vfiprintf_r+0xda0>
    535c:	84 c1 00 00 	l.lwz r6,0(r1)
    5360:	84 a1 00 30 	l.lwz r5,48(r1)
    5364:	84 61 00 34 	l.lwz r3,52(r1)
    5368:	9d 65 00 01 	l.addi r11,r5,1
    536c:	03 ff fe 29 	l.j 4c10 <_vfiprintf_r+0xbb8>
    5370:	a8 fe 00 00 	l.ori r7,r30,0x0
    5374:	1a 20 00 01 	l.movhi r17,0x1
    5378:	9c a5 00 01 	l.addi r5,r5,1
    537c:	03 ff fc 35 	l.j 4450 <_vfiprintf_r+0x3f8>
    5380:	aa 31 2a b0 	l.ori r17,r17,0x2ab0
    5384:	03 ff ff 06 	l.j 4f9c <_vfiprintf_r+0xf44>
    5388:	a8 a3 00 00 	l.ori r5,r3,0x0
    538c:	03 ff fd 2d 	l.j 4840 <_vfiprintf_r+0x7e8>
    5390:	ab 9c 00 02 	l.ori r28,r28,0x2
    5394:	bc a6 00 06 	l.sfleui r6,6
    5398:	10 00 00 04 	l.bf 53a8 <_vfiprintf_r+0x1350>
    539c:	bd 66 00 00 	l.sfgesi r6,0
    53a0:	9c c0 00 06 	l.addi r6,r0,6
    53a4:	bd 66 00 00 	l.sfgesi r6,0
    53a8:	ab 46 00 00 	l.ori r26,r6,0x0
    53ac:	0c 00 00 17 	l.bnf 5408 <_vfiprintf_r+0x13b0>
    53b0:	aa 86 00 00 	l.ori r20,r6,0x0
    53b4:	1a 40 00 01 	l.movhi r18,0x1
    53b8:	d4 01 40 1c 	l.sw 28(r1),r8
    53bc:	aa 52 29 34 	l.ori r18,r18,0x2934
    53c0:	03 ff fb fa 	l.j 43a8 <_vfiprintf_r+0x350>
    53c4:	9c c0 00 00 	l.addi r6,r0,0
    53c8:	03 ff fe f5 	l.j 4f9c <_vfiprintf_r+0xf44>
    53cc:	9c a0 00 2d 	l.addi r5,r0,45
    53d0:	1a 20 00 01 	l.movhi r17,0x1
    53d4:	84 c1 00 30 	l.lwz r6,48(r1)
    53d8:	aa 31 2a b0 	l.ori r17,r17,0x2ab0
    53dc:	03 ff fe 66 	l.j 4d74 <_vfiprintf_r+0xd1c>
    53e0:	9c c6 00 01 	l.addi r6,r6,1
    53e4:	19 a0 00 01 	l.movhi r13,0x1
    53e8:	aa 6b 00 00 	l.ori r19,r11,0x0
    53ec:	03 ff fc 59 	l.j 4550 <_vfiprintf_r+0x4f8>
    53f0:	a9 ad 2a a0 	l.ori r13,r13,0x2aa0
    53f4:	ab 46 00 00 	l.ori r26,r6,0x0
    53f8:	90 a1 00 29 	l.lbs r5,41(r1)
    53fc:	d4 01 40 1c 	l.sw 28(r1),r8
    5400:	03 ff fb e2 	l.j 4388 <_vfiprintf_r+0x330>
    5404:	a8 cb 00 00 	l.ori r6,r11,0x0
    5408:	03 ff ff eb 	l.j 53b4 <_vfiprintf_r+0x135c>
    540c:	9e 80 00 00 	l.addi r20,r0,0
    5410:	85 01 00 1c 	l.lwz r8,28(r1)
    5414:	ab 12 00 00 	l.ori r24,r18,0x0
    5418:	84 c8 00 00 	l.lwz r6,0(r8)
    541c:	9c 68 00 04 	l.addi r3,r8,4
    5420:	bd 86 00 00 	l.sfltsi r6,0
    5424:	0f ff fb 8d 	l.bnf 4258 <_vfiprintf_r+0x200>
    5428:	d4 01 18 1c 	l.sw 28(r1),r3
    542c:	9c c0 ff ff 	l.addi r6,r0,-1
    5430:	03 ff fb 78 	l.j 4210 <_vfiprintf_r+0x1b8>
    5434:	aa 58 00 00 	l.ori r18,r24,0x0
    5438:	03 ff fc 87 	l.j 4654 <_vfiprintf_r+0x5fc>
    543c:	d8 01 68 29 	l.sb 41(r1),r13
    5440:	03 ff fd 76 	l.j 4a18 <_vfiprintf_r+0x9c0>
    5444:	d8 01 68 29 	l.sb 41(r1),r13
    5448:	03 ff fd 63 	l.j 49d4 <_vfiprintf_r+0x97c>
    544c:	d8 01 68 29 	l.sb 41(r1),r13
    5450:	03 ff fd 88 	l.j 4a70 <_vfiprintf_r+0xa18>
    5454:	d8 01 68 29 	l.sb 41(r1),r13
    5458:	03 ff fc e2 	l.j 47e0 <_vfiprintf_r+0x788>
    545c:	d8 01 68 29 	l.sb 41(r1),r13
    5460:	03 ff fc bf 	l.j 475c <_vfiprintf_r+0x704>
    5464:	d8 01 68 29 	l.sb 41(r1),r13
    5468:	03 ff fc 98 	l.j 46c8 <_vfiprintf_r+0x670>
    546c:	d8 01 68 29 	l.sb 41(r1),r13
    5470:	03 ff fe cb 	l.j 4f9c <_vfiprintf_r+0xf44>
    5474:	90 a1 00 29 	l.lbs r5,41(r1)

00005478 <vfiprintf>:
    5478:	d7 e1 4f fc 	l.sw -4(r1),r9
    547c:	d7 e1 0f f8 	l.sw -8(r1),r1
    5480:	9c 21 ff ec 	l.addi r1,r1,-20
    5484:	d4 01 18 08 	l.sw 8(r1),r3
    5488:	d4 01 20 04 	l.sw 4(r1),r4
    548c:	07 ff f7 4f 	l.jal 31c8 <__getreent>
    5490:	d4 01 28 00 	l.sw 0(r1),r5
    5494:	84 a1 00 00 	l.lwz r5,0(r1)
    5498:	84 81 00 04 	l.lwz r4,4(r1)
    549c:	84 61 00 08 	l.lwz r3,8(r1)
    54a0:	a8 c5 00 00 	l.ori r6,r5,0x0
    54a4:	a8 a4 00 00 	l.ori r5,r4,0x0
    54a8:	a8 83 00 00 	l.ori r4,r3,0x0
    54ac:	07 ff fa eb 	l.jal 4058 <_vfiprintf_r>
    54b0:	a8 6b 00 00 	l.ori r3,r11,0x0
    54b4:	9c 21 00 14 	l.addi r1,r1,20
    54b8:	85 21 ff fc 	l.lwz r9,-4(r1)
    54bc:	44 00 48 00 	l.jr r9
    54c0:	84 21 ff f8 	l.lwz r1,-8(r1)

000054c4 <__sbprintf>:
    54c4:	94 e4 00 0c 	l.lhz r7,12(r4)
    54c8:	d7 e1 17 f0 	l.sw -16(r1),r2
    54cc:	d7 e1 77 f4 	l.sw -12(r1),r14
    54d0:	a8 44 00 00 	l.ori r2,r4,0x0
    54d4:	85 c4 00 64 	l.lwz r14,100(r4)
    54d8:	9c 80 ff fd 	l.addi r4,r0,-3
    54dc:	d7 e1 97 f8 	l.sw -8(r1),r18
    54e0:	e0 e7 20 03 	l.and r7,r7,r4
    54e4:	d7 e1 4f fc 	l.sw -4(r1),r9
    54e8:	d7 e1 0f ec 	l.sw -20(r1),r1
    54ec:	9c 21 fb 84 	l.addi r1,r1,-1148
    54f0:	9d 00 04 00 	l.addi r8,r0,1024
    54f4:	dc 01 38 0c 	l.sh 12(r1),r7
    54f8:	94 e2 00 0e 	l.lhz r7,14(r2)
    54fc:	9d 61 00 68 	l.addi r11,r1,104
    5500:	85 a2 00 1c 	l.lwz r13,28(r2)
    5504:	85 82 00 24 	l.lwz r12,36(r2)
    5508:	dc 01 38 0e 	l.sh 14(r1),r7
    550c:	a8 81 00 00 	l.ori r4,r1,0x0
    5510:	9c e0 00 00 	l.addi r7,r0,0
    5514:	d4 01 70 64 	l.sw 100(r1),r14
    5518:	aa 43 00 00 	l.ori r18,r3,0x0
    551c:	d4 01 68 1c 	l.sw 28(r1),r13
    5520:	d4 01 60 24 	l.sw 36(r1),r12
    5524:	d4 01 58 00 	l.sw 0(r1),r11
    5528:	d4 01 58 10 	l.sw 16(r1),r11
    552c:	d4 01 40 08 	l.sw 8(r1),r8
    5530:	d4 01 40 14 	l.sw 20(r1),r8
    5534:	07 ff fa c9 	l.jal 4058 <_vfiprintf_r>
    5538:	d4 01 38 18 	l.sw 24(r1),r7
    553c:	bd 8b 00 00 	l.sfltsi r11,0
    5540:	10 00 00 08 	l.bf 5560 <__sbprintf+0x9c>
    5544:	a9 cb 00 00 	l.ori r14,r11,0x0
    5548:	a8 81 00 00 	l.ori r4,r1,0x0
    554c:	04 00 12 aa 	l.jal 9ff4 <_fflush_r>
    5550:	a8 72 00 00 	l.ori r3,r18,0x0
    5554:	bc 0b 00 00 	l.sfeqi r11,0
    5558:	0c 00 00 12 	l.bnf 55a0 <__sbprintf+0xdc>
    555c:	15 00 00 00 	l.nop 0x0
    5560:	94 61 00 0c 	l.lhz r3,12(r1)
    5564:	a4 63 00 40 	l.andi r3,r3,0x40
    5568:	bc 03 00 00 	l.sfeqi r3,0
    556c:	10 00 00 05 	l.bf 5580 <__sbprintf+0xbc>
    5570:	15 00 00 00 	l.nop 0x0
    5574:	94 62 00 0c 	l.lhz r3,12(r2)
    5578:	a8 63 00 40 	l.ori r3,r3,0x40
    557c:	dc 02 18 0c 	l.sh 12(r2),r3
    5580:	9c 21 04 7c 	l.addi r1,r1,1148
    5584:	a9 6e 00 00 	l.ori r11,r14,0x0
    5588:	85 21 ff fc 	l.lwz r9,-4(r1)
    558c:	84 21 ff ec 	l.lwz r1,-20(r1)
    5590:	84 41 ff f0 	l.lwz r2,-16(r1)
    5594:	85 c1 ff f4 	l.lwz r14,-12(r1)
    5598:	44 00 48 00 	l.jr r9
    559c:	86 41 ff f8 	l.lwz r18,-8(r1)
    55a0:	03 ff ff f0 	l.j 5560 <__sbprintf+0x9c>
    55a4:	9d c0 ff ff 	l.addi r14,r0,-1

000055a8 <_vfprintf_r>:
    55a8:	d7 e1 4f fc 	l.sw -4(r1),r9
    55ac:	d7 e1 97 e0 	l.sw -32(r1),r18
    55b0:	d7 e1 b7 e8 	l.sw -24(r1),r22
    55b4:	d7 e1 d7 f0 	l.sw -16(r1),r26
    55b8:	d7 e1 0f d4 	l.sw -44(r1),r1
    55bc:	d7 e1 17 d8 	l.sw -40(r1),r2
    55c0:	d7 e1 77 dc 	l.sw -36(r1),r14
    55c4:	d7 e1 a7 e4 	l.sw -28(r1),r20
    55c8:	d7 e1 c7 ec 	l.sw -20(r1),r24
    55cc:	d7 e1 e7 f4 	l.sw -12(r1),r28
    55d0:	d7 e1 f7 f8 	l.sw -8(r1),r30
    55d4:	9c 21 fe ec 	l.addi r1,r1,-276
    55d8:	aa c3 00 00 	l.ori r22,r3,0x0
    55dc:	ab 44 00 00 	l.ori r26,r4,0x0
    55e0:	aa 45 00 00 	l.ori r18,r5,0x0
    55e4:	04 00 17 ca 	l.jal b50c <_localeconv_r>
    55e8:	d4 01 30 2c 	l.sw 44(r1),r6
    55ec:	85 6b 00 00 	l.lwz r11,0(r11)
    55f0:	a8 6b 00 00 	l.ori r3,r11,0x0
    55f4:	04 00 21 85 	l.jal dc08 <strlen>
    55f8:	d4 01 58 44 	l.sw 68(r1),r11
    55fc:	bc 16 00 00 	l.sfeqi r22,0
    5600:	10 00 00 06 	l.bf 5618 <_vfprintf_r+0x70>
    5604:	d4 01 58 50 	l.sw 80(r1),r11
    5608:	84 56 00 38 	l.lwz r2,56(r22)
    560c:	bc 22 00 00 	l.sfnei r2,0
    5610:	0c 00 00 ad 	l.bnf 58c4 <_vfprintf_r+0x31c>
    5614:	15 00 00 00 	l.nop 0x0
    5618:	98 7a 00 0c 	l.lhs r3,12(r26)
    561c:	a4 43 ff ff 	l.andi r2,r3,0xffff
    5620:	a4 82 20 00 	l.andi r4,r2,0x2000
    5624:	bc 24 00 00 	l.sfnei r4,0
    5628:	10 00 00 08 	l.bf 5648 <_vfprintf_r+0xa0>
    562c:	9c a0 df ff 	l.addi r5,r0,-8193
    5630:	84 9a 00 64 	l.lwz r4,100(r26)
    5634:	a8 43 20 00 	l.ori r2,r3,0x2000
    5638:	e0 64 28 03 	l.and r3,r4,r5
    563c:	dc 1a 10 0c 	l.sh 12(r26),r2
    5640:	d4 1a 18 64 	l.sw 100(r26),r3
    5644:	a4 42 ff ff 	l.andi r2,r2,0xffff
    5648:	a4 62 00 08 	l.andi r3,r2,0x8
    564c:	bc 03 00 00 	l.sfeqi r3,0
    5650:	10 00 00 65 	l.bf 57e4 <_vfprintf_r+0x23c>
    5654:	a8 9a 00 00 	l.ori r4,r26,0x0
    5658:	84 7a 00 10 	l.lwz r3,16(r26)
    565c:	bc 23 00 00 	l.sfnei r3,0
    5660:	0c 00 00 61 	l.bnf 57e4 <_vfprintf_r+0x23c>
    5664:	a4 42 00 1a 	l.andi r2,r2,0x1a
    5668:	bc 22 00 0a 	l.sfnei r2,10
    566c:	0c 00 00 68 	l.bnf 580c <_vfprintf_r+0x264>
    5670:	9c 41 00 a8 	l.addi r2,r1,168
    5674:	9c e0 00 00 	l.addi r7,r0,0
    5678:	d4 01 10 1c 	l.sw 28(r1),r2
    567c:	d4 01 10 74 	l.sw 116(r1),r2
    5680:	a9 82 00 00 	l.ori r12,r2,0x0
    5684:	9c 41 00 74 	l.addi r2,r1,116
    5688:	d4 01 38 3c 	l.sw 60(r1),r7
    568c:	d4 01 10 18 	l.sw 24(r1),r2
    5690:	9c 41 00 64 	l.addi r2,r1,100
    5694:	d4 01 38 7c 	l.sw 124(r1),r7
    5698:	d4 01 10 14 	l.sw 20(r1),r2
    569c:	9c 41 00 a7 	l.addi r2,r1,167
    56a0:	d4 01 38 78 	l.sw 120(r1),r7
    56a4:	d4 01 38 48 	l.sw 72(r1),r7
    56a8:	d4 01 38 4c 	l.sw 76(r1),r7
    56ac:	d4 01 38 54 	l.sw 84(r1),r7
    56b0:	d4 01 38 30 	l.sw 48(r1),r7
    56b4:	d4 01 10 10 	l.sw 16(r1),r2
    56b8:	90 52 00 00 	l.lbs r2,0(r18)
    56bc:	a4 62 00 ff 	l.andi r3,r2,0xff
    56c0:	bc 03 00 00 	l.sfeqi r3,0
    56c4:	10 00 00 25 	l.bf 5758 <_vfprintf_r+0x1b0>
    56c8:	a9 d2 00 00 	l.ori r14,r18,0x0
    56cc:	ac 42 00 25 	l.xori r2,r2,37
    56d0:	a4 42 00 ff 	l.andi r2,r2,0xff
    56d4:	bc 02 00 00 	l.sfeqi r2,0
    56d8:	0c 00 00 0a 	l.bnf 5700 <_vfprintf_r+0x158>
    56dc:	9d ce 00 01 	l.addi r14,r14,1
    56e0:	9d ce ff ff 	l.addi r14,r14,-1
    56e4:	00 00 00 1e 	l.j 575c <_vfprintf_r+0x1b4>
    56e8:	90 4e 00 00 	l.lbs r2,0(r14)
    56ec:	a4 42 00 ff 	l.andi r2,r2,0xff
    56f0:	bc 22 00 00 	l.sfnei r2,0
    56f4:	0c 00 00 09 	l.bnf 5718 <_vfprintf_r+0x170>
    56f8:	e0 4e 90 02 	l.sub r2,r14,r18
    56fc:	9d ce 00 01 	l.addi r14,r14,1
    5700:	90 4e 00 00 	l.lbs r2,0(r14)
    5704:	a4 62 00 ff 	l.andi r3,r2,0xff
    5708:	bc 03 00 00 	l.sfeqi r3,0
    570c:	0f ff ff f8 	l.bnf 56ec <_vfprintf_r+0x144>
    5710:	ac 42 00 25 	l.xori r2,r2,37
    5714:	e0 4e 90 02 	l.sub r2,r14,r18
    5718:	bc 02 00 00 	l.sfeqi r2,0
    571c:	10 00 00 0f 	l.bf 5758 <_vfprintf_r+0x1b0>
    5720:	84 81 00 7c 	l.lwz r4,124(r1)
    5724:	84 61 00 78 	l.lwz r3,120(r1)
    5728:	e0 84 10 00 	l.add r4,r4,r2
    572c:	9c 63 00 01 	l.addi r3,r3,1
    5730:	d4 0c 90 00 	l.sw 0(r12),r18
    5734:	d4 0c 10 04 	l.sw 4(r12),r2
    5738:	d4 01 20 7c 	l.sw 124(r1),r4
    573c:	bd 43 00 07 	l.sfgtsi r3,7
    5740:	10 00 00 3e 	l.bf 5838 <_vfprintf_r+0x290>
    5744:	d4 01 18 78 	l.sw 120(r1),r3
    5748:	9d 8c 00 08 	l.addi r12,r12,8
    574c:	84 61 00 30 	l.lwz r3,48(r1)
    5750:	e0 63 10 00 	l.add r3,r3,r2
    5754:	d4 01 18 30 	l.sw 48(r1),r3
    5758:	90 4e 00 00 	l.lbs r2,0(r14)
    575c:	bc 02 00 00 	l.sfeqi r2,0
    5760:	10 00 00 3f 	l.bf 585c <_vfprintf_r+0x2b4>
    5764:	9c a0 00 00 	l.addi r5,r0,0
    5768:	9c 80 00 00 	l.addi r4,r0,0
    576c:	9e 4e 00 01 	l.addi r18,r14,1
    5770:	d8 01 20 59 	l.sb 89(r1),r4
    5774:	a8 e5 00 00 	l.ori r7,r5,0x0
    5778:	9c 40 ff ff 	l.addi r2,r0,-1
    577c:	d4 01 28 24 	l.sw 36(r1),r5
    5780:	a9 c5 00 00 	l.ori r14,r5,0x0
    5784:	a8 85 00 00 	l.ori r4,r5,0x0
    5788:	92 92 00 00 	l.lbs r20,0(r18)
    578c:	9e 52 00 01 	l.addi r18,r18,1
    5790:	9c 74 ff e0 	l.addi r3,r20,-32
    5794:	bc 43 00 58 	l.sfgtui r3,88
    5798:	10 00 02 30 	l.bf 6058 <_vfprintf_r+0xab0>
    579c:	18 c0 00 01 	l.movhi r6,0x1
    57a0:	b8 63 00 02 	l.slli r3,r3,0x2
    57a4:	a8 c6 2a dc 	l.ori r6,r6,0x2adc
    57a8:	e0 63 30 00 	l.add r3,r3,r6
    57ac:	84 63 00 00 	l.lwz r3,0(r3)
    57b0:	44 00 18 00 	l.jr r3
    57b4:	15 00 00 00 	l.nop 0x0
    57b8:	03 ff ff f4 	l.j 5788 <_vfprintf_r+0x1e0>
    57bc:	a9 ce 00 10 	l.ori r14,r14,0x10
    57c0:	85 01 00 2c 	l.lwz r8,44(r1)
    57c4:	84 88 00 00 	l.lwz r4,0(r8)
    57c8:	9d 08 00 04 	l.addi r8,r8,4
    57cc:	bd 64 00 00 	l.sfgesi r4,0
    57d0:	13 ff ff ee 	l.bf 5788 <_vfprintf_r+0x1e0>
    57d4:	d4 01 40 2c 	l.sw 44(r1),r8
    57d8:	e0 80 20 02 	l.sub r4,r0,r4
    57dc:	03 ff ff eb 	l.j 5788 <_vfprintf_r+0x1e0>
    57e0:	a9 ce 00 04 	l.ori r14,r14,0x4
    57e4:	04 00 08 7a 	l.jal 79cc <__swsetup_r>
    57e8:	a8 76 00 00 	l.ori r3,r22,0x0
    57ec:	bc 0b 00 00 	l.sfeqi r11,0
    57f0:	0c 00 06 4f 	l.bnf 712c <_vfprintf_r+0x1b84>
    57f4:	15 00 00 00 	l.nop 0x0
    57f8:	94 5a 00 0c 	l.lhz r2,12(r26)
    57fc:	a4 42 00 1a 	l.andi r2,r2,0x1a
    5800:	bc 22 00 0a 	l.sfnei r2,10
    5804:	13 ff ff 9c 	l.bf 5674 <_vfprintf_r+0xcc>
    5808:	9c 41 00 a8 	l.addi r2,r1,168
    580c:	98 5a 00 0e 	l.lhs r2,14(r26)
    5810:	bd 82 00 00 	l.sfltsi r2,0
    5814:	13 ff ff 98 	l.bf 5674 <_vfprintf_r+0xcc>
    5818:	9c 41 00 a8 	l.addi r2,r1,168
    581c:	84 c1 00 2c 	l.lwz r6,44(r1)
    5820:	a8 b2 00 00 	l.ori r5,r18,0x0
    5824:	a8 9a 00 00 	l.ori r4,r26,0x0
    5828:	04 00 08 30 	l.jal 78e8 <__sbprintf>
    582c:	a8 76 00 00 	l.ori r3,r22,0x0
    5830:	00 00 00 19 	l.j 5894 <_vfprintf_r+0x2ec>
    5834:	9c 21 01 14 	l.addi r1,r1,276
    5838:	9c a1 00 74 	l.addi r5,r1,116
    583c:	a8 9a 00 00 	l.ori r4,r26,0x0
    5840:	07 ff f9 f5 	l.jal 4014 <__sprint_r>
    5844:	a8 76 00 00 	l.ori r3,r22,0x0
    5848:	bc 2b 00 00 	l.sfnei r11,0
    584c:	10 00 00 0b 	l.bf 5878 <_vfprintf_r+0x2d0>
    5850:	9d 81 00 a8 	l.addi r12,r1,168
    5854:	03 ff ff bf 	l.j 5750 <_vfprintf_r+0x1a8>
    5858:	84 61 00 30 	l.lwz r3,48(r1)
    585c:	84 41 00 7c 	l.lwz r2,124(r1)
    5860:	bc 22 00 00 	l.sfnei r2,0
    5864:	0c 00 00 05 	l.bnf 5878 <_vfprintf_r+0x2d0>
    5868:	9c a1 00 74 	l.addi r5,r1,116
    586c:	a8 9a 00 00 	l.ori r4,r26,0x0
    5870:	07 ff f9 e9 	l.jal 4014 <__sprint_r>
    5874:	a8 76 00 00 	l.ori r3,r22,0x0
    5878:	94 5a 00 0c 	l.lhz r2,12(r26)
    587c:	a4 42 00 40 	l.andi r2,r2,0x40
    5880:	bc 22 00 00 	l.sfnei r2,0
    5884:	10 00 00 03 	l.bf 5890 <_vfprintf_r+0x2e8>
    5888:	9d 60 ff ff 	l.addi r11,r0,-1
    588c:	85 61 00 30 	l.lwz r11,48(r1)
    5890:	9c 21 01 14 	l.addi r1,r1,276
    5894:	85 21 ff fc 	l.lwz r9,-4(r1)
    5898:	84 21 ff d4 	l.lwz r1,-44(r1)
    589c:	84 41 ff d8 	l.lwz r2,-40(r1)
    58a0:	85 c1 ff dc 	l.lwz r14,-36(r1)
    58a4:	86 41 ff e0 	l.lwz r18,-32(r1)
    58a8:	86 81 ff e4 	l.lwz r20,-28(r1)
    58ac:	86 c1 ff e8 	l.lwz r22,-24(r1)
    58b0:	87 01 ff ec 	l.lwz r24,-20(r1)
    58b4:	87 41 ff f0 	l.lwz r26,-16(r1)
    58b8:	87 81 ff f4 	l.lwz r28,-12(r1)
    58bc:	44 00 48 00 	l.jr r9
    58c0:	87 c1 ff f8 	l.lwz r30,-8(r1)
    58c4:	04 00 12 fb 	l.jal a4b0 <__sinit>
    58c8:	a8 76 00 00 	l.ori r3,r22,0x0
    58cc:	03 ff ff 54 	l.j 561c <_vfprintf_r+0x74>
    58d0:	98 7a 00 0c 	l.lhs r3,12(r26)
    58d4:	9c a0 00 01 	l.addi r5,r0,1
    58d8:	03 ff ff ac 	l.j 5788 <_vfprintf_r+0x1e0>
    58dc:	9c e0 00 2b 	l.addi r7,r0,43
    58e0:	85 01 00 2c 	l.lwz r8,44(r1)
    58e4:	9d 60 00 00 	l.addi r11,r0,0
    58e8:	87 08 00 00 	l.lwz r24,0(r8)
    58ec:	d4 01 20 24 	l.sw 36(r1),r4
    58f0:	d8 01 58 59 	l.sb 89(r1),r11
    58f4:	bc 38 00 00 	l.sfnei r24,0
    58f8:	0c 00 06 c2 	l.bnf 7400 <_vfprintf_r+0x1e58>
    58fc:	9f 88 00 04 	l.addi r28,r8,4
    5900:	bd 82 00 00 	l.sfltsi r2,0
    5904:	10 00 06 4c 	l.bf 7234 <_vfprintf_r+0x1c8c>
    5908:	a8 a2 00 00 	l.ori r5,r2,0x0
    590c:	9c 80 00 00 	l.addi r4,r0,0
    5910:	a8 78 00 00 	l.ori r3,r24,0x0
    5914:	04 00 17 96 	l.jal b76c <memchr>
    5918:	d4 01 60 08 	l.sw 8(r1),r12
    591c:	bc 2b 00 00 	l.sfnei r11,0
    5920:	0c 00 06 fc 	l.bnf 7510 <_vfprintf_r+0x1f68>
    5924:	85 81 00 08 	l.lwz r12,8(r1)
    5928:	e1 6b c0 02 	l.sub r11,r11,r24
    592c:	d4 01 58 28 	l.sw 40(r1),r11
    5930:	bd 6b 00 00 	l.sfgesi r11,0
    5934:	0c 00 06 48 	l.bnf 7254 <_vfprintf_r+0x1cac>
    5938:	a8 6b 00 00 	l.ori r3,r11,0x0
    593c:	9c 40 00 00 	l.addi r2,r0,0
    5940:	90 a1 00 59 	l.lbs r5,89(r1)
    5944:	d4 01 18 20 	l.sw 32(r1),r3
    5948:	d4 01 e0 2c 	l.sw 44(r1),r28
    594c:	d4 01 10 40 	l.sw 64(r1),r2
    5950:	bc 05 00 00 	l.sfeqi r5,0
    5954:	10 00 00 04 	l.bf 5964 <_vfprintf_r+0x3bc>
    5958:	84 61 00 20 	l.lwz r3,32(r1)
    595c:	9c 63 00 01 	l.addi r3,r3,1
    5960:	d4 01 18 20 	l.sw 32(r1),r3
    5964:	a4 ce 00 02 	l.andi r6,r14,0x2
    5968:	bc 06 00 00 	l.sfeqi r6,0
    596c:	10 00 00 05 	l.bf 5980 <_vfprintf_r+0x3d8>
    5970:	d4 01 30 34 	l.sw 52(r1),r6
    5974:	84 e1 00 20 	l.lwz r7,32(r1)
    5978:	9c e7 00 02 	l.addi r7,r7,2
    597c:	d4 01 38 20 	l.sw 32(r1),r7
    5980:	a5 0e 00 84 	l.andi r8,r14,0x84
    5984:	bc 08 00 00 	l.sfeqi r8,0
    5988:	0c 00 01 ed 	l.bnf 613c <_vfprintf_r+0xb94>
    598c:	d4 01 40 38 	l.sw 56(r1),r8
    5990:	85 61 00 24 	l.lwz r11,36(r1)
    5994:	84 e1 00 20 	l.lwz r7,32(r1)
    5998:	e3 cb 38 02 	l.sub r30,r11,r7
    599c:	bd 5e 00 00 	l.sfgtsi r30,0
    59a0:	0c 00 01 e7 	l.bnf 613c <_vfprintf_r+0xb94>
    59a4:	1b 80 00 01 	l.movhi r28,0x1
    59a8:	bd 5e 00 10 	l.sfgtsi r30,16
    59ac:	84 e1 00 7c 	l.lwz r7,124(r1)
    59b0:	84 61 00 78 	l.lwz r3,120(r1)
    59b4:	0c 00 00 1e 	l.bnf 5a2c <_vfprintf_r+0x484>
    59b8:	ab 9c 2c 50 	l.ori r28,r28,0x2c50
    59bc:	00 00 00 06 	l.j 59d4 <_vfprintf_r+0x42c>
    59c0:	9d a0 00 10 	l.addi r13,r0,16
    59c4:	9f de ff f0 	l.addi r30,r30,-16
    59c8:	bd 5e 00 10 	l.sfgtsi r30,16
    59cc:	0c 00 00 18 	l.bnf 5a2c <_vfprintf_r+0x484>
    59d0:	9d 8c 00 08 	l.addi r12,r12,8
    59d4:	9c 63 00 01 	l.addi r3,r3,1
    59d8:	9c e7 00 10 	l.addi r7,r7,16
    59dc:	d4 0c e0 00 	l.sw 0(r12),r28
    59e0:	d4 0c 68 04 	l.sw 4(r12),r13
    59e4:	d4 01 38 7c 	l.sw 124(r1),r7
    59e8:	bd 43 00 07 	l.sfgtsi r3,7
    59ec:	0f ff ff f6 	l.bnf 59c4 <_vfprintf_r+0x41c>
    59f0:	d4 01 18 78 	l.sw 120(r1),r3
    59f4:	9c a1 00 74 	l.addi r5,r1,116
    59f8:	a8 9a 00 00 	l.ori r4,r26,0x0
    59fc:	a8 76 00 00 	l.ori r3,r22,0x0
    5a00:	07 ff f9 85 	l.jal 4014 <__sprint_r>
    5a04:	d4 01 68 0c 	l.sw 12(r1),r13
    5a08:	bc 2b 00 00 	l.sfnei r11,0
    5a0c:	13 ff ff 9b 	l.bf 5878 <_vfprintf_r+0x2d0>
    5a10:	85 a1 00 0c 	l.lwz r13,12(r1)
    5a14:	9f de ff f0 	l.addi r30,r30,-16
    5a18:	84 e1 00 7c 	l.lwz r7,124(r1)
    5a1c:	bd 5e 00 10 	l.sfgtsi r30,16
    5a20:	84 61 00 78 	l.lwz r3,120(r1)
    5a24:	13 ff ff ec 	l.bf 59d4 <_vfprintf_r+0x42c>
    5a28:	9d 81 00 a8 	l.addi r12,r1,168
    5a2c:	9c 63 00 01 	l.addi r3,r3,1
    5a30:	e0 fe 38 00 	l.add r7,r30,r7
    5a34:	d4 0c e0 00 	l.sw 0(r12),r28
    5a38:	d4 0c f0 04 	l.sw 4(r12),r30
    5a3c:	d4 01 38 7c 	l.sw 124(r1),r7
    5a40:	bd 43 00 07 	l.sfgtsi r3,7
    5a44:	10 00 03 b6 	l.bf 691c <_vfprintf_r+0x1374>
    5a48:	d4 01 18 78 	l.sw 120(r1),r3
    5a4c:	9d 8c 00 08 	l.addi r12,r12,8
    5a50:	00 00 01 bc 	l.j 6140 <_vfprintf_r+0xb98>
    5a54:	90 a1 00 59 	l.lbs r5,89(r1)
    5a58:	bc 05 00 00 	l.sfeqi r5,0
    5a5c:	0c 00 07 74 	l.bnf 782c <_vfprintf_r+0x2284>
    5a60:	d4 01 20 24 	l.sw 36(r1),r4
    5a64:	a4 6e 00 10 	l.andi r3,r14,0x10
    5a68:	bc 03 00 00 	l.sfeqi r3,0
    5a6c:	10 00 00 92 	l.bf 5cb4 <_vfprintf_r+0x70c>
    5a70:	a4 ae 00 40 	l.andi r5,r14,0x40
    5a74:	9c 60 00 00 	l.addi r3,r0,0
    5a78:	84 a1 00 2c 	l.lwz r5,44(r1)
    5a7c:	d8 01 18 59 	l.sb 89(r1),r3
    5a80:	bd 82 00 00 	l.sfltsi r2,0
    5a84:	9c 85 00 04 	l.addi r4,r5,4
    5a88:	10 00 05 d2 	l.bf 71d0 <_vfprintf_r+0x1c28>
    5a8c:	87 85 00 00 	l.lwz r28,0(r5)
    5a90:	e0 60 e0 02 	l.sub r3,r0,r28
    5a94:	9c c0 ff 7f 	l.addi r6,r0,-129
    5a98:	e0 63 e0 04 	l.or r3,r3,r28
    5a9c:	d4 01 20 2c 	l.sw 44(r1),r4
    5aa0:	bd 83 00 00 	l.sfltsi r3,0
    5aa4:	10 00 00 9a 	l.bf 5d0c <_vfprintf_r+0x764>
    5aa8:	e1 ce 30 03 	l.and r14,r14,r6
    5aac:	e0 60 10 02 	l.sub r3,r0,r2
    5ab0:	e0 63 10 04 	l.or r3,r3,r2
    5ab4:	b8 63 00 5f 	l.srli r3,r3,0x1f
    5ab8:	bc 23 00 00 	l.sfnei r3,0
    5abc:	10 00 00 94 	l.bf 5d0c <_vfprintf_r+0x764>
    5ac0:	a8 a3 00 00 	l.ori r5,r3,0x0
    5ac4:	00 00 00 46 	l.j 5bdc <_vfprintf_r+0x634>
    5ac8:	15 00 00 00 	l.nop 0x0
    5acc:	03 ff ff 2f 	l.j 5788 <_vfprintf_r+0x1e0>
    5ad0:	a9 ce 00 80 	l.ori r14,r14,0x80
    5ad4:	a8 d2 00 00 	l.ori r6,r18,0x0
    5ad8:	9c 80 00 00 	l.addi r4,r0,0
    5adc:	9c 74 ff d0 	l.addi r3,r20,-48
    5ae0:	e0 84 20 00 	l.add r4,r4,r4
    5ae4:	92 86 00 00 	l.lbs r20,0(r6)
    5ae8:	b8 c4 00 02 	l.slli r6,r4,0x2
    5aec:	9e 52 00 01 	l.addi r18,r18,1
    5af0:	e0 84 30 00 	l.add r4,r4,r6
    5af4:	e0 83 20 00 	l.add r4,r3,r4
    5af8:	9c 74 ff d0 	l.addi r3,r20,-48
    5afc:	bc a3 00 09 	l.sfleui r3,9
    5b00:	13 ff ff f8 	l.bf 5ae0 <_vfprintf_r+0x538>
    5b04:	a8 d2 00 00 	l.ori r6,r18,0x0
    5b08:	03 ff ff 23 	l.j 5794 <_vfprintf_r+0x1ec>
    5b0c:	9c 74 ff e0 	l.addi r3,r20,-32
    5b10:	92 92 00 00 	l.lbs r20,0(r18)
    5b14:	bc 14 00 2a 	l.sfeqi r20,42
    5b18:	10 00 07 3b 	l.bf 7804 <_vfprintf_r+0x225c>
    5b1c:	9e 52 00 01 	l.addi r18,r18,1
    5b20:	9c 74 ff d0 	l.addi r3,r20,-48
    5b24:	a9 12 00 00 	l.ori r8,r18,0x0
    5b28:	bc a3 00 09 	l.sfleui r3,9
    5b2c:	0f ff ff 19 	l.bnf 5790 <_vfprintf_r+0x1e8>
    5b30:	9c 40 00 00 	l.addi r2,r0,0
    5b34:	e0 42 10 00 	l.add r2,r2,r2
    5b38:	92 88 00 00 	l.lbs r20,0(r8)
    5b3c:	b8 c2 00 02 	l.slli r6,r2,0x2
    5b40:	9e 48 00 01 	l.addi r18,r8,1
    5b44:	e0 42 30 00 	l.add r2,r2,r6
    5b48:	e0 42 18 00 	l.add r2,r2,r3
    5b4c:	9c 74 ff d0 	l.addi r3,r20,-48
    5b50:	bc a3 00 09 	l.sfleui r3,9
    5b54:	13 ff ff f8 	l.bf 5b34 <_vfprintf_r+0x58c>
    5b58:	a9 12 00 00 	l.ori r8,r18,0x0
    5b5c:	bd 62 00 00 	l.sfgesi r2,0
    5b60:	13 ff ff 0d 	l.bf 5794 <_vfprintf_r+0x1ec>
    5b64:	9c 74 ff e0 	l.addi r3,r20,-32
    5b68:	03 ff ff 0b 	l.j 5794 <_vfprintf_r+0x1ec>
    5b6c:	9c 40 ff ff 	l.addi r2,r0,-1
    5b70:	9c c0 00 00 	l.addi r6,r0,0
    5b74:	d4 01 20 24 	l.sw 36(r1),r4
    5b78:	9c a0 00 78 	l.addi r5,r0,120
    5b7c:	9c 80 00 30 	l.addi r4,r0,48
    5b80:	84 e1 00 2c 	l.lwz r7,44(r1)
    5b84:	d8 01 30 59 	l.sb 89(r1),r6
    5b88:	d8 01 20 5a 	l.sb 90(r1),r4
    5b8c:	d8 01 28 5b 	l.sb 91(r1),r5
    5b90:	bd 62 00 00 	l.sfgesi r2,0
    5b94:	9c c7 00 04 	l.addi r6,r7,4
    5b98:	0c 00 05 88 	l.bnf 71b8 <_vfprintf_r+0x1c10>
    5b9c:	84 67 00 00 	l.lwz r3,0(r7)
    5ba0:	e0 80 18 02 	l.sub r4,r0,r3
    5ba4:	9d 60 ff 7f 	l.addi r11,r0,-129
    5ba8:	e0 84 18 04 	l.or r4,r4,r3
    5bac:	e1 ce 58 03 	l.and r14,r14,r11
    5bb0:	d4 01 30 2c 	l.sw 44(r1),r6
    5bb4:	bd 84 00 00 	l.sfltsi r4,0
    5bb8:	10 00 04 da 	l.bf 6f20 <_vfprintf_r+0x1978>
    5bbc:	a9 ce 00 02 	l.ori r14,r14,0x2
    5bc0:	e0 a0 10 02 	l.sub r5,r0,r2
    5bc4:	e0 a5 10 04 	l.or r5,r5,r2
    5bc8:	b8 a5 00 5f 	l.srli r5,r5,0x1f
    5bcc:	bc 25 00 00 	l.sfnei r5,0
    5bd0:	10 00 04 d5 	l.bf 6f24 <_vfprintf_r+0x197c>
    5bd4:	18 c0 00 01 	l.movhi r6,0x1
    5bd8:	9e 80 00 78 	l.addi r20,r0,120
    5bdc:	9c 40 00 00 	l.addi r2,r0,0
    5be0:	9f 01 00 a8 	l.addi r24,r1,168
    5be4:	d4 01 10 28 	l.sw 40(r1),r2
    5be8:	85 01 00 28 	l.lwz r8,40(r1)
    5bec:	e5 68 10 00 	l.sfges r8,r2
    5bf0:	10 00 00 03 	l.bf 5bfc <_vfprintf_r+0x654>
    5bf4:	a8 68 00 00 	l.ori r3,r8,0x0
    5bf8:	a8 62 00 00 	l.ori r3,r2,0x0
    5bfc:	9c e0 00 00 	l.addi r7,r0,0
    5c00:	d4 01 18 20 	l.sw 32(r1),r3
    5c04:	03 ff ff 53 	l.j 5950 <_vfprintf_r+0x3a8>
    5c08:	d4 01 38 40 	l.sw 64(r1),r7
    5c0c:	bc 05 00 00 	l.sfeqi r5,0
    5c10:	0c 00 07 0f 	l.bnf 784c <_vfprintf_r+0x22a4>
    5c14:	d4 01 20 24 	l.sw 36(r1),r4
    5c18:	a9 ce 00 10 	l.ori r14,r14,0x10
    5c1c:	a4 8e 00 10 	l.andi r4,r14,0x10
    5c20:	bc 04 00 00 	l.sfeqi r4,0
    5c24:	10 00 01 1a 	l.bf 608c <_vfprintf_r+0xae4>
    5c28:	84 a1 00 2c 	l.lwz r5,44(r1)
    5c2c:	9c 80 00 00 	l.addi r4,r0,0
    5c30:	d8 01 20 59 	l.sb 89(r1),r4
    5c34:	bd 82 00 00 	l.sfltsi r2,0
    5c38:	9c c5 00 04 	l.addi r6,r5,4
    5c3c:	10 00 01 28 	l.bf 60dc <_vfprintf_r+0xb34>
    5c40:	84 65 00 00 	l.lwz r3,0(r5)
    5c44:	e0 80 18 02 	l.sub r4,r0,r3
    5c48:	9c e0 ff 7f 	l.addi r7,r0,-129
    5c4c:	e0 84 18 04 	l.or r4,r4,r3
    5c50:	bd 84 00 00 	l.sfltsi r4,0
    5c54:	10 00 01 22 	l.bf 60dc <_vfprintf_r+0xb34>
    5c58:	e1 ce 38 03 	l.and r14,r14,r7
    5c5c:	e0 80 10 02 	l.sub r4,r0,r2
    5c60:	e0 84 10 04 	l.or r4,r4,r2
    5c64:	bd 84 00 00 	l.sfltsi r4,0
    5c68:	10 00 01 1e 	l.bf 60e0 <_vfprintf_r+0xb38>
    5c6c:	9c a1 00 a8 	l.addi r5,r1,168
    5c70:	d4 01 30 2c 	l.sw 44(r1),r6
    5c74:	a4 6e 00 01 	l.andi r3,r14,0x1
    5c78:	bc 23 00 00 	l.sfnei r3,0
    5c7c:	10 00 03 1e 	l.bf 68f4 <_vfprintf_r+0x134c>
    5c80:	84 c1 00 1c 	l.lwz r6,28(r1)
    5c84:	a8 a3 00 00 	l.ori r5,r3,0x0
    5c88:	9f 01 00 a8 	l.addi r24,r1,168
    5c8c:	03 ff ff d7 	l.j 5be8 <_vfprintf_r+0x640>
    5c90:	d4 01 18 28 	l.sw 40(r1),r3
    5c94:	bc 05 00 00 	l.sfeqi r5,0
    5c98:	0c 00 06 f1 	l.bnf 785c <_vfprintf_r+0x22b4>
    5c9c:	d4 01 20 24 	l.sw 36(r1),r4
    5ca0:	a9 ce 00 10 	l.ori r14,r14,0x10
    5ca4:	a4 6e 00 10 	l.andi r3,r14,0x10
    5ca8:	bc 03 00 00 	l.sfeqi r3,0
    5cac:	0f ff ff 72 	l.bnf 5a74 <_vfprintf_r+0x4cc>
    5cb0:	a4 ae 00 40 	l.andi r5,r14,0x40
    5cb4:	bc 05 00 00 	l.sfeqi r5,0
    5cb8:	10 00 04 b3 	l.bf 6f84 <_vfprintf_r+0x19dc>
    5cbc:	85 61 00 2c 	l.lwz r11,44(r1)
    5cc0:	84 e1 00 2c 	l.lwz r7,44(r1)
    5cc4:	d8 01 18 59 	l.sb 89(r1),r3
    5cc8:	87 87 00 00 	l.lwz r28,0(r7)
    5ccc:	bd 82 00 00 	l.sfltsi r2,0
    5cd0:	9c 87 00 04 	l.addi r4,r7,4
    5cd4:	10 00 05 e6 	l.bf 746c <_vfprintf_r+0x1ec4>
    5cd8:	a7 9c ff ff 	l.andi r28,r28,0xffff
    5cdc:	e0 60 10 02 	l.sub r3,r0,r2
    5ce0:	9d 00 ff 7f 	l.addi r8,r0,-129
    5ce4:	e0 63 10 04 	l.or r3,r3,r2
    5ce8:	d4 01 20 2c 	l.sw 44(r1),r4
    5cec:	bd 83 00 00 	l.sfltsi r3,0
    5cf0:	10 00 00 07 	l.bf 5d0c <_vfprintf_r+0x764>
    5cf4:	e1 ce 40 03 	l.and r14,r14,r8
    5cf8:	e0 60 e0 02 	l.sub r3,r0,r28
    5cfc:	b8 63 00 5f 	l.srli r3,r3,0x1f
    5d00:	bc 23 00 00 	l.sfnei r3,0
    5d04:	0f ff ff b6 	l.bnf 5bdc <_vfprintf_r+0x634>
    5d08:	a8 a3 00 00 	l.ori r5,r3,0x0
    5d0c:	9c a0 00 00 	l.addi r5,r0,0
    5d10:	bc 5c 00 09 	l.sfgtui r28,9
    5d14:	10 00 03 bb 	l.bf 6c00 <_vfprintf_r+0x1658>
    5d18:	ab cc 00 00 	l.ori r30,r12,0x0
    5d1c:	85 01 00 1c 	l.lwz r8,28(r1)
    5d20:	85 61 00 10 	l.lwz r11,16(r1)
    5d24:	9f 9c 00 30 	l.addi r28,r28,48
    5d28:	e1 08 58 02 	l.sub r8,r8,r11
    5d2c:	d8 01 e0 a7 	l.sb 167(r1),r28
    5d30:	d4 01 40 28 	l.sw 40(r1),r8
    5d34:	03 ff ff ad 	l.j 5be8 <_vfprintf_r+0x640>
    5d38:	9f 01 00 a7 	l.addi r24,r1,167
    5d3c:	bc 05 00 00 	l.sfeqi r5,0
    5d40:	0c 00 06 c5 	l.bnf 7854 <_vfprintf_r+0x22ac>
    5d44:	d4 01 20 24 	l.sw 36(r1),r4
    5d48:	a4 6e 00 10 	l.andi r3,r14,0x10
    5d4c:	18 c0 00 01 	l.movhi r6,0x1
    5d50:	bc 03 00 00 	l.sfeqi r3,0
    5d54:	10 00 00 9c 	l.bf 5fc4 <_vfprintf_r+0xa1c>
    5d58:	a8 c6 29 12 	l.ori r6,r6,0x2912
    5d5c:	84 81 00 2c 	l.lwz r4,44(r1)
    5d60:	84 64 00 00 	l.lwz r3,0(r4)
    5d64:	9c 84 00 04 	l.addi r4,r4,4
    5d68:	d4 01 20 2c 	l.sw 44(r1),r4
    5d6c:	a4 8e 00 01 	l.andi r4,r14,0x1
    5d70:	bc 04 00 00 	l.sfeqi r4,0
    5d74:	10 00 03 16 	l.bf 69cc <_vfprintf_r+0x1424>
    5d78:	bd 82 00 00 	l.sfltsi r2,0
    5d7c:	bc 03 00 00 	l.sfeqi r3,0
    5d80:	10 00 03 c8 	l.bf 6ca0 <_vfprintf_r+0x16f8>
    5d84:	bd 82 00 00 	l.sfltsi r2,0
    5d88:	9d 00 00 30 	l.addi r8,r0,48
    5d8c:	9d 60 00 00 	l.addi r11,r0,0
    5d90:	d8 01 40 5a 	l.sb 90(r1),r8
    5d94:	d8 01 a0 5b 	l.sb 91(r1),r20
    5d98:	bd 62 00 00 	l.sfgesi r2,0
    5d9c:	0c 00 00 04 	l.bnf 5dac <_vfprintf_r+0x804>
    5da0:	d8 01 58 59 	l.sb 89(r1),r11
    5da4:	9c 80 ff 7f 	l.addi r4,r0,-129
    5da8:	e1 ce 20 03 	l.and r14,r14,r4
    5dac:	a9 ce 00 02 	l.ori r14,r14,0x2
    5db0:	9f 01 00 a8 	l.addi r24,r1,168
    5db4:	a4 83 00 0f 	l.andi r4,r3,0xf
    5db8:	b8 63 00 44 	l.srli r3,r3,0x4
    5dbc:	e0 86 20 00 	l.add r4,r6,r4
    5dc0:	9f 18 ff ff 	l.addi r24,r24,-1
    5dc4:	8c 84 00 00 	l.lbz r4,0(r4)
    5dc8:	bc 23 00 00 	l.sfnei r3,0
    5dcc:	13 ff ff fa 	l.bf 5db4 <_vfprintf_r+0x80c>
    5dd0:	d8 18 20 00 	l.sb 0(r24),r4
    5dd4:	84 e1 00 1c 	l.lwz r7,28(r1)
    5dd8:	a8 a3 00 00 	l.ori r5,r3,0x0
    5ddc:	e0 e7 c0 02 	l.sub r7,r7,r24
    5de0:	03 ff ff 82 	l.j 5be8 <_vfprintf_r+0x640>
    5de4:	d4 01 38 28 	l.sw 40(r1),r7
    5de8:	84 61 00 2c 	l.lwz r3,44(r1)
    5dec:	9c e0 00 01 	l.addi r7,r0,1
    5df0:	84 43 00 00 	l.lwz r2,0(r3)
    5df4:	9d 00 00 00 	l.addi r8,r0,0
    5df8:	9c 63 00 04 	l.addi r3,r3,4
    5dfc:	d4 01 20 24 	l.sw 36(r1),r4
    5e00:	d4 01 38 20 	l.sw 32(r1),r7
    5e04:	d8 01 10 80 	l.sb 128(r1),r2
    5e08:	d8 01 40 59 	l.sb 89(r1),r8
    5e0c:	d4 01 18 2c 	l.sw 44(r1),r3
    5e10:	d4 01 38 28 	l.sw 40(r1),r7
    5e14:	9f 01 00 80 	l.addi r24,r1,128
    5e18:	9c a0 00 00 	l.addi r5,r0,0
    5e1c:	a8 45 00 00 	l.ori r2,r5,0x0
    5e20:	03 ff fe d1 	l.j 5964 <_vfprintf_r+0x3bc>
    5e24:	d4 01 28 40 	l.sw 64(r1),r5
    5e28:	bc 05 00 00 	l.sfeqi r5,0
    5e2c:	13 ff ff 7c 	l.bf 5c1c <_vfprintf_r+0x674>
    5e30:	d4 01 20 24 	l.sw 36(r1),r4
    5e34:	03 ff ff 7a 	l.j 5c1c <_vfprintf_r+0x674>
    5e38:	d8 01 38 59 	l.sb 89(r1),r7
    5e3c:	bc 05 00 00 	l.sfeqi r5,0
    5e40:	0c 00 06 91 	l.bnf 7884 <_vfprintf_r+0x22dc>
    5e44:	d4 01 20 24 	l.sw 36(r1),r4
    5e48:	a9 ce 00 10 	l.ori r14,r14,0x10
    5e4c:	a4 6e 00 10 	l.andi r3,r14,0x10
    5e50:	bc 03 00 00 	l.sfeqi r3,0
    5e54:	10 00 02 ee 	l.bf 6a0c <_vfprintf_r+0x1464>
    5e58:	a4 6e 00 40 	l.andi r3,r14,0x40
    5e5c:	85 61 00 2c 	l.lwz r11,44(r1)
    5e60:	87 8b 00 00 	l.lwz r28,0(r11)
    5e64:	9d 6b 00 04 	l.addi r11,r11,4
    5e68:	d4 01 58 2c 	l.sw 44(r1),r11
    5e6c:	bd 9c 00 00 	l.sfltsi r28,0
    5e70:	10 00 03 84 	l.bf 6c80 <_vfprintf_r+0x16d8>
    5e74:	bd 82 00 00 	l.sfltsi r2,0
    5e78:	13 ff ff a6 	l.bf 5d10 <_vfprintf_r+0x768>
    5e7c:	90 a1 00 59 	l.lbs r5,89(r1)
    5e80:	e0 60 e0 02 	l.sub r3,r0,r28
    5e84:	9c a0 ff 7f 	l.addi r5,r0,-129
    5e88:	e0 63 e0 04 	l.or r3,r3,r28
    5e8c:	bd 83 00 00 	l.sfltsi r3,0
    5e90:	10 00 02 a1 	l.bf 6914 <_vfprintf_r+0x136c>
    5e94:	e1 ce 28 03 	l.and r14,r14,r5
    5e98:	e0 60 10 02 	l.sub r3,r0,r2
    5e9c:	e0 63 10 04 	l.or r3,r3,r2
    5ea0:	bd 83 00 00 	l.sfltsi r3,0
    5ea4:	10 00 02 9c 	l.bf 6914 <_vfprintf_r+0x136c>
    5ea8:	15 00 00 00 	l.nop 0x0
    5eac:	03 ff ff 4c 	l.j 5bdc <_vfprintf_r+0x634>
    5eb0:	90 a1 00 59 	l.lbs r5,89(r1)
    5eb4:	bc 05 00 00 	l.sfeqi r5,0
    5eb8:	0c 00 06 75 	l.bnf 788c <_vfprintf_r+0x22e4>
    5ebc:	d4 01 20 24 	l.sw 36(r1),r4
    5ec0:	a4 6e 00 08 	l.andi r3,r14,0x8
    5ec4:	bc 03 00 00 	l.sfeqi r3,0
    5ec8:	10 00 03 fb 	l.bf 6eb4 <_vfprintf_r+0x190c>
    5ecc:	84 81 00 2c 	l.lwz r4,44(r1)
    5ed0:	85 01 00 2c 	l.lwz r8,44(r1)
    5ed4:	85 61 00 2c 	l.lwz r11,44(r1)
    5ed8:	84 61 00 2c 	l.lwz r3,44(r1)
    5edc:	85 08 00 00 	l.lwz r8,0(r8)
    5ee0:	85 6b 00 04 	l.lwz r11,4(r11)
    5ee4:	9c 63 00 08 	l.addi r3,r3,8
    5ee8:	d4 01 40 48 	l.sw 72(r1),r8
    5eec:	d4 01 58 4c 	l.sw 76(r1),r11
    5ef0:	d4 01 18 2c 	l.sw 44(r1),r3
    5ef4:	84 61 00 4c 	l.lwz r3,76(r1)
    5ef8:	84 c1 00 48 	l.lwz r6,72(r1)
    5efc:	a8 a3 00 00 	l.ori r5,r3,0x0
    5f00:	a8 86 00 00 	l.ori r4,r6,0x0
    5f04:	e0 64 00 04 	l.or r3,r4,r0
    5f08:	e0 85 00 04 	l.or r4,r5,r0
    5f0c:	04 00 1d 84 	l.jal d51c <__fpclassifyd>
    5f10:	d4 01 60 08 	l.sw 8(r1),r12
    5f14:	bc 2b 00 01 	l.sfnei r11,1
    5f18:	10 00 03 6a 	l.bf 6cc0 <_vfprintf_r+0x1718>
    5f1c:	85 81 00 08 	l.lwz r12,8(r1)
    5f20:	84 a1 00 48 	l.lwz r5,72(r1)
    5f24:	84 81 00 4c 	l.lwz r4,76(r1)
    5f28:	18 e0 00 01 	l.movhi r7,0x1
    5f2c:	a8 45 00 00 	l.ori r2,r5,0x0
    5f30:	a8 e7 2a d4 	l.ori r7,r7,0x2ad4
    5f34:	a8 64 00 00 	l.ori r3,r4,0x0
    5f38:	84 a7 00 00 	l.lwz r5,0(r7)
    5f3c:	84 c7 00 04 	l.lwz r6,4(r7)
    5f40:	e0 83 00 04 	l.or r4,r3,r0
    5f44:	e0 62 00 04 	l.or r3,r2,r0
    5f48:	04 00 2c 22 	l.jal 10fd0 <__ledf2>
    5f4c:	15 00 00 00 	l.nop 0x0
    5f50:	bd 8b 00 00 	l.sfltsi r11,0
    5f54:	10 00 05 42 	l.bf 745c <_vfprintf_r+0x1eb4>
    5f58:	85 81 00 08 	l.lwz r12,8(r1)
    5f5c:	90 a1 00 59 	l.lbs r5,89(r1)
    5f60:	1b 00 00 01 	l.movhi r24,0x1
    5f64:	bd 54 00 47 	l.sfgtsi r20,71
    5f68:	10 00 00 04 	l.bf 5f78 <_vfprintf_r+0x9d0>
    5f6c:	ab 18 2a c4 	l.ori r24,r24,0x2ac4
    5f70:	1b 00 00 01 	l.movhi r24,0x1
    5f74:	ab 18 2a c0 	l.ori r24,r24,0x2ac0
    5f78:	9c 40 00 03 	l.addi r2,r0,3
    5f7c:	9c 60 ff 7f 	l.addi r3,r0,-129
    5f80:	d4 01 10 20 	l.sw 32(r1),r2
    5f84:	9c 40 00 00 	l.addi r2,r0,0
    5f88:	84 e1 00 20 	l.lwz r7,32(r1)
    5f8c:	e1 ce 18 03 	l.and r14,r14,r3
    5f90:	d4 01 38 28 	l.sw 40(r1),r7
    5f94:	03 ff fe 6f 	l.j 5950 <_vfprintf_r+0x3a8>
    5f98:	d4 01 10 40 	l.sw 64(r1),r2
    5f9c:	03 ff fd fb 	l.j 5788 <_vfprintf_r+0x1e0>
    5fa0:	a9 ce 00 08 	l.ori r14,r14,0x8
    5fa4:	bc 05 00 00 	l.sfeqi r5,0
    5fa8:	0c 00 06 27 	l.bnf 7844 <_vfprintf_r+0x229c>
    5fac:	d4 01 20 24 	l.sw 36(r1),r4
    5fb0:	a4 6e 00 10 	l.andi r3,r14,0x10
    5fb4:	18 c0 00 01 	l.movhi r6,0x1
    5fb8:	bc 03 00 00 	l.sfeqi r3,0
    5fbc:	0f ff ff 68 	l.bnf 5d5c <_vfprintf_r+0x7b4>
    5fc0:	a8 c6 29 23 	l.ori r6,r6,0x2923
    5fc4:	a4 6e 00 40 	l.andi r3,r14,0x40
    5fc8:	bc 03 00 00 	l.sfeqi r3,0
    5fcc:	10 00 03 e4 	l.bf 6f5c <_vfprintf_r+0x19b4>
    5fd0:	84 a1 00 2c 	l.lwz r5,44(r1)
    5fd4:	84 65 00 00 	l.lwz r3,0(r5)
    5fd8:	9c a5 00 04 	l.addi r5,r5,4
    5fdc:	a4 63 ff ff 	l.andi r3,r3,0xffff
    5fe0:	03 ff ff 63 	l.j 5d6c <_vfprintf_r+0x7c4>
    5fe4:	d4 01 28 2c 	l.sw 44(r1),r5
    5fe8:	bc 05 00 00 	l.sfeqi r5,0
    5fec:	0c 00 06 24 	l.bnf 787c <_vfprintf_r+0x22d4>
    5ff0:	15 00 00 00 	l.nop 0x0
    5ff4:	a4 4e 00 10 	l.andi r2,r14,0x10
    5ff8:	bc 02 00 00 	l.sfeqi r2,0
    5ffc:	10 00 03 cd 	l.bf 6f30 <_vfprintf_r+0x1988>
    6000:	84 a1 00 2c 	l.lwz r5,44(r1)
    6004:	84 c1 00 30 	l.lwz r6,48(r1)
    6008:	84 45 00 00 	l.lwz r2,0(r5)
    600c:	9c a5 00 04 	l.addi r5,r5,4
    6010:	d4 02 30 00 	l.sw 0(r2),r6
    6014:	03 ff fd a9 	l.j 56b8 <_vfprintf_r+0x110>
    6018:	d4 01 28 2c 	l.sw 44(r1),r5
    601c:	03 ff fd db 	l.j 5788 <_vfprintf_r+0x1e0>
    6020:	a9 ce 00 40 	l.ori r14,r14,0x40
    6024:	bc 05 00 00 	l.sfeqi r5,0
    6028:	13 ff ff 89 	l.bf 5e4c <_vfprintf_r+0x8a4>
    602c:	d4 01 20 24 	l.sw 36(r1),r4
    6030:	03 ff ff 87 	l.j 5e4c <_vfprintf_r+0x8a4>
    6034:	d8 01 38 59 	l.sb 89(r1),r7
    6038:	bc 07 00 00 	l.sfeqi r7,0
    603c:	0f ff fd d3 	l.bnf 5788 <_vfprintf_r+0x1e0>
    6040:	15 00 00 00 	l.nop 0x0
    6044:	9c a0 00 01 	l.addi r5,r0,1
    6048:	03 ff fd d0 	l.j 5788 <_vfprintf_r+0x1e0>
    604c:	9c e0 00 20 	l.addi r7,r0,32
    6050:	03 ff fd ce 	l.j 5788 <_vfprintf_r+0x1e0>
    6054:	a9 ce 00 01 	l.ori r14,r14,0x1
    6058:	bc 05 00 00 	l.sfeqi r5,0
    605c:	0c 00 05 f8 	l.bnf 783c <_vfprintf_r+0x2294>
    6060:	d4 01 20 24 	l.sw 36(r1),r4
    6064:	bc 14 00 00 	l.sfeqi r20,0
    6068:	13 ff fd fd 	l.bf 585c <_vfprintf_r+0x2b4>
    606c:	9d 00 00 01 	l.addi r8,r0,1
    6070:	9d 60 00 00 	l.addi r11,r0,0
    6074:	d4 01 40 20 	l.sw 32(r1),r8
    6078:	d8 01 a0 80 	l.sb 128(r1),r20
    607c:	d8 01 58 59 	l.sb 89(r1),r11
    6080:	d4 01 40 28 	l.sw 40(r1),r8
    6084:	03 ff ff 65 	l.j 5e18 <_vfprintf_r+0x870>
    6088:	9f 01 00 80 	l.addi r24,r1,128
    608c:	a4 6e 00 40 	l.andi r3,r14,0x40
    6090:	bc 03 00 00 	l.sfeqi r3,0
    6094:	10 00 03 91 	l.bf 6ed8 <_vfprintf_r+0x1930>
    6098:	bd 62 00 00 	l.sfgesi r2,0
    609c:	85 01 00 2c 	l.lwz r8,44(r1)
    60a0:	d8 01 20 59 	l.sb 89(r1),r4
    60a4:	84 68 00 00 	l.lwz r3,0(r8)
    60a8:	bd 82 00 00 	l.sfltsi r2,0
    60ac:	9c c8 00 04 	l.addi r6,r8,4
    60b0:	10 00 00 0b 	l.bf 60dc <_vfprintf_r+0xb34>
    60b4:	a4 63 ff ff 	l.andi r3,r3,0xffff
    60b8:	e0 80 10 02 	l.sub r4,r0,r2
    60bc:	9d 60 ff 7f 	l.addi r11,r0,-129
    60c0:	e0 84 10 04 	l.or r4,r4,r2
    60c4:	bd 84 00 00 	l.sfltsi r4,0
    60c8:	10 00 00 05 	l.bf 60dc <_vfprintf_r+0xb34>
    60cc:	e1 ce 58 03 	l.and r14,r14,r11
    60d0:	bc 23 00 00 	l.sfnei r3,0
    60d4:	0f ff fe e7 	l.bnf 5c70 <_vfprintf_r+0x6c8>
    60d8:	15 00 00 00 	l.nop 0x0
    60dc:	9c a1 00 a8 	l.addi r5,r1,168
    60e0:	a4 83 00 07 	l.andi r4,r3,0x7
    60e4:	b8 63 00 43 	l.srli r3,r3,0x3
    60e8:	9c 84 00 30 	l.addi r4,r4,48
    60ec:	9c a5 ff ff 	l.addi r5,r5,-1
    60f0:	bc 23 00 00 	l.sfnei r3,0
    60f4:	13 ff ff fb 	l.bf 60e0 <_vfprintf_r+0xb38>
    60f8:	d8 05 20 00 	l.sb 0(r5),r4
    60fc:	ac 84 00 30 	l.xori r4,r4,48
    6100:	a4 84 00 ff 	l.andi r4,r4,0xff
    6104:	bc 04 00 00 	l.sfeqi r4,0
    6108:	10 00 04 02 	l.bf 7110 <_vfprintf_r+0x1b68>
    610c:	a4 8e 00 01 	l.andi r4,r14,0x1
    6110:	bc 24 00 00 	l.sfnei r4,0
    6114:	0c 00 03 ff 	l.bnf 7110 <_vfprintf_r+0x1b68>
    6118:	84 e1 00 1c 	l.lwz r7,28(r1)
    611c:	9f 05 ff ff 	l.addi r24,r5,-1
    6120:	9d 00 00 30 	l.addi r8,r0,48
    6124:	e0 e7 c0 02 	l.sub r7,r7,r24
    6128:	db e5 47 ff 	l.sb -1(r5),r8
    612c:	d4 01 38 28 	l.sw 40(r1),r7
    6130:	d4 01 30 2c 	l.sw 44(r1),r6
    6134:	03 ff fe ad 	l.j 5be8 <_vfprintf_r+0x640>
    6138:	a8 a3 00 00 	l.ori r5,r3,0x0
    613c:	84 e1 00 7c 	l.lwz r7,124(r1)
    6140:	bc 05 00 00 	l.sfeqi r5,0
    6144:	10 00 00 0f 	l.bf 6180 <_vfprintf_r+0xbd8>
    6148:	84 c1 00 34 	l.lwz r6,52(r1)
    614c:	84 61 00 78 	l.lwz r3,120(r1)
    6150:	9c e7 00 01 	l.addi r7,r7,1
    6154:	9c 63 00 01 	l.addi r3,r3,1
    6158:	9d 01 00 59 	l.addi r8,r1,89
    615c:	9c 80 00 01 	l.addi r4,r0,1
    6160:	d4 0c 40 00 	l.sw 0(r12),r8
    6164:	d4 0c 20 04 	l.sw 4(r12),r4
    6168:	d4 01 38 7c 	l.sw 124(r1),r7
    616c:	bd 43 00 07 	l.sfgtsi r3,7
    6170:	10 00 01 95 	l.bf 67c4 <_vfprintf_r+0x121c>
    6174:	d4 01 18 78 	l.sw 120(r1),r3
    6178:	9d 8c 00 08 	l.addi r12,r12,8
    617c:	84 c1 00 34 	l.lwz r6,52(r1)
    6180:	bc 06 00 00 	l.sfeqi r6,0
    6184:	10 00 00 0f 	l.bf 61c0 <_vfprintf_r+0xc18>
    6188:	84 c1 00 38 	l.lwz r6,56(r1)
    618c:	84 61 00 78 	l.lwz r3,120(r1)
    6190:	9c e7 00 02 	l.addi r7,r7,2
    6194:	9c 63 00 01 	l.addi r3,r3,1
    6198:	9d 01 00 5a 	l.addi r8,r1,90
    619c:	9c 80 00 02 	l.addi r4,r0,2
    61a0:	d4 0c 40 00 	l.sw 0(r12),r8
    61a4:	d4 0c 20 04 	l.sw 4(r12),r4
    61a8:	d4 01 38 7c 	l.sw 124(r1),r7
    61ac:	bd 43 00 07 	l.sfgtsi r3,7
    61b0:	10 00 01 8e 	l.bf 67e8 <_vfprintf_r+0x1240>
    61b4:	d4 01 18 78 	l.sw 120(r1),r3
    61b8:	9d 8c 00 08 	l.addi r12,r12,8
    61bc:	84 c1 00 38 	l.lwz r6,56(r1)
    61c0:	bc 26 00 80 	l.sfnei r6,128
    61c4:	0c 00 00 e9 	l.bnf 6568 <_vfprintf_r+0xfc0>
    61c8:	85 01 00 24 	l.lwz r8,36(r1)
    61cc:	84 c1 00 28 	l.lwz r6,40(r1)
    61d0:	e0 42 30 02 	l.sub r2,r2,r6
    61d4:	bd a2 00 00 	l.sflesi r2,0
    61d8:	10 00 00 29 	l.bf 627c <_vfprintf_r+0xcd4>
    61dc:	1b 80 00 01 	l.movhi r28,0x1
    61e0:	bd 42 00 10 	l.sfgtsi r2,16
    61e4:	84 61 00 78 	l.lwz r3,120(r1)
    61e8:	0c 00 00 1c 	l.bnf 6258 <_vfprintf_r+0xcb0>
    61ec:	ab 9c 2c 40 	l.ori r28,r28,0x2c40
    61f0:	00 00 00 06 	l.j 6208 <_vfprintf_r+0xc60>
    61f4:	9f c0 00 10 	l.addi r30,r0,16
    61f8:	9c 42 ff f0 	l.addi r2,r2,-16
    61fc:	bd 42 00 10 	l.sfgtsi r2,16
    6200:	0c 00 00 16 	l.bnf 6258 <_vfprintf_r+0xcb0>
    6204:	9d 8c 00 08 	l.addi r12,r12,8
    6208:	9c 63 00 01 	l.addi r3,r3,1
    620c:	9c e7 00 10 	l.addi r7,r7,16
    6210:	d4 0c e0 00 	l.sw 0(r12),r28
    6214:	d4 0c f0 04 	l.sw 4(r12),r30
    6218:	d4 01 38 7c 	l.sw 124(r1),r7
    621c:	bd 43 00 07 	l.sfgtsi r3,7
    6220:	0f ff ff f6 	l.bnf 61f8 <_vfprintf_r+0xc50>
    6224:	d4 01 18 78 	l.sw 120(r1),r3
    6228:	9c a1 00 74 	l.addi r5,r1,116
    622c:	a8 9a 00 00 	l.ori r4,r26,0x0
    6230:	07 ff f7 79 	l.jal 4014 <__sprint_r>
    6234:	a8 76 00 00 	l.ori r3,r22,0x0
    6238:	bc 2b 00 00 	l.sfnei r11,0
    623c:	13 ff fd 8f 	l.bf 5878 <_vfprintf_r+0x2d0>
    6240:	9c 42 ff f0 	l.addi r2,r2,-16
    6244:	84 e1 00 7c 	l.lwz r7,124(r1)
    6248:	bd 42 00 10 	l.sfgtsi r2,16
    624c:	84 61 00 78 	l.lwz r3,120(r1)
    6250:	13 ff ff ee 	l.bf 6208 <_vfprintf_r+0xc60>
    6254:	9d 81 00 a8 	l.addi r12,r1,168
    6258:	9c 63 00 01 	l.addi r3,r3,1
    625c:	e0 e7 10 00 	l.add r7,r7,r2
    6260:	d4 0c e0 00 	l.sw 0(r12),r28
    6264:	d4 0c 10 04 	l.sw 4(r12),r2
    6268:	d4 01 38 7c 	l.sw 124(r1),r7
    626c:	bd 43 00 07 	l.sfgtsi r3,7
    6270:	10 00 01 4c 	l.bf 67a0 <_vfprintf_r+0x11f8>
    6274:	d4 01 18 78 	l.sw 120(r1),r3
    6278:	9d 8c 00 08 	l.addi r12,r12,8
    627c:	a4 4e 01 00 	l.andi r2,r14,0x100
    6280:	bc 22 00 00 	l.sfnei r2,0
    6284:	10 00 00 62 	l.bf 640c <_vfprintf_r+0xe64>
    6288:	bd b4 00 65 	l.sflesi r20,101
    628c:	85 01 00 28 	l.lwz r8,40(r1)
    6290:	84 41 00 78 	l.lwz r2,120(r1)
    6294:	e0 e7 40 00 	l.add r7,r7,r8
    6298:	9c 42 00 01 	l.addi r2,r2,1
    629c:	d4 0c c0 00 	l.sw 0(r12),r24
    62a0:	d4 0c 40 04 	l.sw 4(r12),r8
    62a4:	d4 01 38 7c 	l.sw 124(r1),r7
    62a8:	bd 42 00 07 	l.sfgtsi r2,7
    62ac:	10 00 00 4f 	l.bf 63e8 <_vfprintf_r+0xe40>
    62b0:	d4 01 10 78 	l.sw 120(r1),r2
    62b4:	9d 8c 00 08 	l.addi r12,r12,8
    62b8:	a5 ce 00 04 	l.andi r14,r14,0x4
    62bc:	bc 0e 00 00 	l.sfeqi r14,0
    62c0:	10 00 00 35 	l.bf 6394 <_vfprintf_r+0xdec>
    62c4:	84 41 00 24 	l.lwz r2,36(r1)
    62c8:	85 01 00 20 	l.lwz r8,32(r1)
    62cc:	e1 c2 40 02 	l.sub r14,r2,r8
    62d0:	bd ae 00 00 	l.sflesi r14,0
    62d4:	10 00 00 30 	l.bf 6394 <_vfprintf_r+0xdec>
    62d8:	1b 80 00 01 	l.movhi r28,0x1
    62dc:	bd 4e 00 10 	l.sfgtsi r14,16
    62e0:	84 41 00 78 	l.lwz r2,120(r1)
    62e4:	0c 00 00 1c 	l.bnf 6354 <_vfprintf_r+0xdac>
    62e8:	ab 9c 2c 50 	l.ori r28,r28,0x2c50
    62ec:	00 00 00 06 	l.j 6304 <_vfprintf_r+0xd5c>
    62f0:	9e 80 00 10 	l.addi r20,r0,16
    62f4:	9d ce ff f0 	l.addi r14,r14,-16
    62f8:	bd 4e 00 10 	l.sfgtsi r14,16
    62fc:	0c 00 00 16 	l.bnf 6354 <_vfprintf_r+0xdac>
    6300:	9d 8c 00 08 	l.addi r12,r12,8
    6304:	9c 42 00 01 	l.addi r2,r2,1
    6308:	9c e7 00 10 	l.addi r7,r7,16
    630c:	d4 0c e0 00 	l.sw 0(r12),r28
    6310:	d4 0c a0 04 	l.sw 4(r12),r20
    6314:	d4 01 38 7c 	l.sw 124(r1),r7
    6318:	bd 42 00 07 	l.sfgtsi r2,7
    631c:	0f ff ff f6 	l.bnf 62f4 <_vfprintf_r+0xd4c>
    6320:	d4 01 10 78 	l.sw 120(r1),r2
    6324:	9c a1 00 74 	l.addi r5,r1,116
    6328:	a8 9a 00 00 	l.ori r4,r26,0x0
    632c:	07 ff f7 3a 	l.jal 4014 <__sprint_r>
    6330:	a8 76 00 00 	l.ori r3,r22,0x0
    6334:	bc 2b 00 00 	l.sfnei r11,0
    6338:	13 ff fd 50 	l.bf 5878 <_vfprintf_r+0x2d0>
    633c:	9d ce ff f0 	l.addi r14,r14,-16
    6340:	84 e1 00 7c 	l.lwz r7,124(r1)
    6344:	bd 4e 00 10 	l.sfgtsi r14,16
    6348:	84 41 00 78 	l.lwz r2,120(r1)
    634c:	13 ff ff ee 	l.bf 6304 <_vfprintf_r+0xd5c>
    6350:	9d 81 00 a8 	l.addi r12,r1,168
    6354:	9c 42 00 01 	l.addi r2,r2,1
    6358:	e0 e7 70 00 	l.add r7,r7,r14
    635c:	d4 0c e0 00 	l.sw 0(r12),r28
    6360:	d4 0c 70 04 	l.sw 4(r12),r14
    6364:	d4 01 38 7c 	l.sw 124(r1),r7
    6368:	bd a2 00 07 	l.sflesi r2,7
    636c:	10 00 00 09 	l.bf 6390 <_vfprintf_r+0xde8>
    6370:	d4 01 10 78 	l.sw 120(r1),r2
    6374:	9c a1 00 74 	l.addi r5,r1,116
    6378:	a8 9a 00 00 	l.ori r4,r26,0x0
    637c:	07 ff f7 26 	l.jal 4014 <__sprint_r>
    6380:	a8 76 00 00 	l.ori r3,r22,0x0
    6384:	bc 2b 00 00 	l.sfnei r11,0
    6388:	13 ff fd 3c 	l.bf 5878 <_vfprintf_r+0x2d0>
    638c:	84 e1 00 7c 	l.lwz r7,124(r1)
    6390:	84 41 00 24 	l.lwz r2,36(r1)
    6394:	85 01 00 20 	l.lwz r8,32(r1)
    6398:	e5 62 40 00 	l.sfges r2,r8
    639c:	10 00 00 03 	l.bf 63a8 <_vfprintf_r+0xe00>
    63a0:	85 61 00 30 	l.lwz r11,48(r1)
    63a4:	a8 48 00 00 	l.ori r2,r8,0x0
    63a8:	bc 27 00 00 	l.sfnei r7,0
    63ac:	e1 6b 10 00 	l.add r11,r11,r2
    63b0:	10 00 00 f3 	l.bf 677c <_vfprintf_r+0x11d4>
    63b4:	d4 01 58 30 	l.sw 48(r1),r11
    63b8:	9c 40 00 00 	l.addi r2,r0,0
    63bc:	9d 81 00 a8 	l.addi r12,r1,168
    63c0:	03 ff fc be 	l.j 56b8 <_vfprintf_r+0x110>
    63c4:	d4 01 10 78 	l.sw 120(r1),r2
    63c8:	9c 42 00 01 	l.addi r2,r2,1
    63cc:	e0 e7 a0 00 	l.add r7,r7,r20
    63d0:	d4 0c e0 00 	l.sw 0(r12),r28
    63d4:	d4 0c a0 04 	l.sw 4(r12),r20
    63d8:	d4 01 38 7c 	l.sw 124(r1),r7
    63dc:	bd 42 00 07 	l.sfgtsi r2,7
    63e0:	0f ff ff b5 	l.bnf 62b4 <_vfprintf_r+0xd0c>
    63e4:	d4 01 10 78 	l.sw 120(r1),r2
    63e8:	9c a1 00 74 	l.addi r5,r1,116
    63ec:	a8 9a 00 00 	l.ori r4,r26,0x0
    63f0:	07 ff f7 09 	l.jal 4014 <__sprint_r>
    63f4:	a8 76 00 00 	l.ori r3,r22,0x0
    63f8:	bc 2b 00 00 	l.sfnei r11,0
    63fc:	13 ff fd 1f 	l.bf 5878 <_vfprintf_r+0x2d0>
    6400:	84 e1 00 7c 	l.lwz r7,124(r1)
    6404:	03 ff ff ad 	l.j 62b8 <_vfprintf_r+0xd10>
    6408:	9d 81 00 a8 	l.addi r12,r1,168
    640c:	10 00 00 86 	l.bf 6624 <_vfprintf_r+0x107c>
    6410:	84 41 00 3c 	l.lwz r2,60(r1)
    6414:	84 a1 00 48 	l.lwz r5,72(r1)
    6418:	84 81 00 4c 	l.lwz r4,76(r1)
    641c:	19 60 00 01 	l.movhi r11,0x1
    6420:	a8 45 00 00 	l.ori r2,r5,0x0
    6424:	a9 6b 2a d4 	l.ori r11,r11,0x2ad4
    6428:	a8 64 00 00 	l.ori r3,r4,0x0
    642c:	d4 01 38 0c 	l.sw 12(r1),r7
    6430:	84 ab 00 00 	l.lwz r5,0(r11)
    6434:	84 cb 00 04 	l.lwz r6,4(r11)
    6438:	e0 83 00 04 	l.or r4,r3,r0
    643c:	e0 62 00 04 	l.or r3,r2,r0
    6440:	04 00 2a 2e 	l.jal 10cf8 <__eqdf2>
    6444:	d4 01 60 08 	l.sw 8(r1),r12
    6448:	bc 0b 00 00 	l.sfeqi r11,0
    644c:	84 e1 00 0c 	l.lwz r7,12(r1)
    6450:	0c 00 00 ef 	l.bnf 680c <_vfprintf_r+0x1264>
    6454:	85 81 00 08 	l.lwz r12,8(r1)
    6458:	18 60 00 01 	l.movhi r3,0x1
    645c:	84 41 00 78 	l.lwz r2,120(r1)
    6460:	a8 63 2a d0 	l.ori r3,r3,0x2ad0
    6464:	9c 42 00 01 	l.addi r2,r2,1
    6468:	9c e7 00 01 	l.addi r7,r7,1
    646c:	d4 0c 18 00 	l.sw 0(r12),r3
    6470:	9c 60 00 01 	l.addi r3,r0,1
    6474:	d4 01 38 7c 	l.sw 124(r1),r7
    6478:	d4 0c 18 04 	l.sw 4(r12),r3
    647c:	bd 42 00 07 	l.sfgtsi r2,7
    6480:	10 00 02 d9 	l.bf 6fe4 <_vfprintf_r+0x1a3c>
    6484:	d4 01 10 78 	l.sw 120(r1),r2
    6488:	9d 8c 00 08 	l.addi r12,r12,8
    648c:	84 41 00 5c 	l.lwz r2,92(r1)
    6490:	85 01 00 3c 	l.lwz r8,60(r1)
    6494:	e5 48 10 00 	l.sfgts r8,r2
    6498:	10 00 00 06 	l.bf 64b0 <_vfprintf_r+0xf08>
    649c:	84 41 00 50 	l.lwz r2,80(r1)
    64a0:	a4 4e 00 01 	l.andi r2,r14,0x1
    64a4:	bc 02 00 00 	l.sfeqi r2,0
    64a8:	13 ff ff 84 	l.bf 62b8 <_vfprintf_r+0xd10>
    64ac:	84 41 00 50 	l.lwz r2,80(r1)
    64b0:	84 61 00 44 	l.lwz r3,68(r1)
    64b4:	e0 e7 10 00 	l.add r7,r7,r2
    64b8:	84 41 00 78 	l.lwz r2,120(r1)
    64bc:	84 81 00 50 	l.lwz r4,80(r1)
    64c0:	9c 42 00 01 	l.addi r2,r2,1
    64c4:	d4 0c 18 00 	l.sw 0(r12),r3
    64c8:	d4 0c 20 04 	l.sw 4(r12),r4
    64cc:	d4 01 38 7c 	l.sw 124(r1),r7
    64d0:	bd 42 00 07 	l.sfgtsi r2,7
    64d4:	10 00 03 42 	l.bf 71dc <_vfprintf_r+0x1c34>
    64d8:	d4 01 10 78 	l.sw 120(r1),r2
    64dc:	9d 8c 00 08 	l.addi r12,r12,8
    64e0:	85 01 00 3c 	l.lwz r8,60(r1)
    64e4:	9e 88 ff ff 	l.addi r20,r8,-1
    64e8:	bd b4 00 00 	l.sflesi r20,0
    64ec:	13 ff ff 73 	l.bf 62b8 <_vfprintf_r+0xd10>
    64f0:	1b 80 00 01 	l.movhi r28,0x1
    64f4:	bd 54 00 10 	l.sfgtsi r20,16
    64f8:	84 41 00 78 	l.lwz r2,120(r1)
    64fc:	0f ff ff b3 	l.bnf 63c8 <_vfprintf_r+0xe20>
    6500:	ab 9c 2c 40 	l.ori r28,r28,0x2c40
    6504:	00 00 00 07 	l.j 6520 <_vfprintf_r+0xf78>
    6508:	9f 00 00 10 	l.addi r24,r0,16
    650c:	9d 8c 00 08 	l.addi r12,r12,8
    6510:	9e 94 ff f0 	l.addi r20,r20,-16
    6514:	bd 54 00 10 	l.sfgtsi r20,16
    6518:	0f ff ff ac 	l.bnf 63c8 <_vfprintf_r+0xe20>
    651c:	15 00 00 00 	l.nop 0x0
    6520:	9c 42 00 01 	l.addi r2,r2,1
    6524:	9c e7 00 10 	l.addi r7,r7,16
    6528:	d4 0c e0 00 	l.sw 0(r12),r28
    652c:	d4 0c c0 04 	l.sw 4(r12),r24
    6530:	d4 01 38 7c 	l.sw 124(r1),r7
    6534:	bd 42 00 07 	l.sfgtsi r2,7
    6538:	0f ff ff f5 	l.bnf 650c <_vfprintf_r+0xf64>
    653c:	d4 01 10 78 	l.sw 120(r1),r2
    6540:	9c a1 00 74 	l.addi r5,r1,116
    6544:	a8 9a 00 00 	l.ori r4,r26,0x0
    6548:	07 ff f6 b3 	l.jal 4014 <__sprint_r>
    654c:	a8 76 00 00 	l.ori r3,r22,0x0
    6550:	bc 2b 00 00 	l.sfnei r11,0
    6554:	13 ff fc c9 	l.bf 5878 <_vfprintf_r+0x2d0>
    6558:	84 e1 00 7c 	l.lwz r7,124(r1)
    655c:	84 41 00 78 	l.lwz r2,120(r1)
    6560:	03 ff ff ec 	l.j 6510 <_vfprintf_r+0xf68>
    6564:	9d 81 00 a8 	l.addi r12,r1,168
    6568:	85 61 00 20 	l.lwz r11,32(r1)
    656c:	e3 c8 58 02 	l.sub r30,r8,r11
    6570:	bd be 00 00 	l.sflesi r30,0
    6574:	13 ff ff 16 	l.bf 61cc <_vfprintf_r+0xc24>
    6578:	1b 80 00 01 	l.movhi r28,0x1
    657c:	bd 5e 00 10 	l.sfgtsi r30,16
    6580:	84 61 00 78 	l.lwz r3,120(r1)
    6584:	0c 00 00 1e 	l.bnf 65fc <_vfprintf_r+0x1054>
    6588:	ab 9c 2c 40 	l.ori r28,r28,0x2c40
    658c:	00 00 00 06 	l.j 65a4 <_vfprintf_r+0xffc>
    6590:	9c c0 00 10 	l.addi r6,r0,16
    6594:	9f de ff f0 	l.addi r30,r30,-16
    6598:	bd 5e 00 10 	l.sfgtsi r30,16
    659c:	0c 00 00 18 	l.bnf 65fc <_vfprintf_r+0x1054>
    65a0:	9d 8c 00 08 	l.addi r12,r12,8
    65a4:	9c 63 00 01 	l.addi r3,r3,1
    65a8:	9c e7 00 10 	l.addi r7,r7,16
    65ac:	d4 0c e0 00 	l.sw 0(r12),r28
    65b0:	d4 0c 30 04 	l.sw 4(r12),r6
    65b4:	d4 01 38 7c 	l.sw 124(r1),r7
    65b8:	bd 43 00 07 	l.sfgtsi r3,7
    65bc:	0f ff ff f6 	l.bnf 6594 <_vfprintf_r+0xfec>
    65c0:	d4 01 18 78 	l.sw 120(r1),r3
    65c4:	9c a1 00 74 	l.addi r5,r1,116
    65c8:	a8 9a 00 00 	l.ori r4,r26,0x0
    65cc:	a8 76 00 00 	l.ori r3,r22,0x0
    65d0:	07 ff f6 91 	l.jal 4014 <__sprint_r>
    65d4:	d4 01 30 0c 	l.sw 12(r1),r6
    65d8:	bc 2b 00 00 	l.sfnei r11,0
    65dc:	13 ff fc a7 	l.bf 5878 <_vfprintf_r+0x2d0>
    65e0:	84 c1 00 0c 	l.lwz r6,12(r1)
    65e4:	9f de ff f0 	l.addi r30,r30,-16
    65e8:	84 e1 00 7c 	l.lwz r7,124(r1)
    65ec:	bd 5e 00 10 	l.sfgtsi r30,16
    65f0:	84 61 00 78 	l.lwz r3,120(r1)
    65f4:	13 ff ff ec 	l.bf 65a4 <_vfprintf_r+0xffc>
    65f8:	9d 81 00 a8 	l.addi r12,r1,168
    65fc:	9c 63 00 01 	l.addi r3,r3,1
    6600:	e0 e7 f0 00 	l.add r7,r7,r30
    6604:	d4 0c e0 00 	l.sw 0(r12),r28
    6608:	d4 0c f0 04 	l.sw 4(r12),r30
    660c:	d4 01 38 7c 	l.sw 124(r1),r7
    6610:	bd 43 00 07 	l.sfgtsi r3,7
    6614:	10 00 01 92 	l.bf 6c5c <_vfprintf_r+0x16b4>
    6618:	d4 01 18 78 	l.sw 120(r1),r3
    661c:	03 ff fe ec 	l.j 61cc <_vfprintf_r+0xc24>
    6620:	9d 8c 00 08 	l.addi r12,r12,8
    6624:	bd 42 00 01 	l.sfgtsi r2,1
    6628:	0c 00 00 3f 	l.bnf 6724 <_vfprintf_r+0x117c>
    662c:	a4 4e 00 01 	l.andi r2,r14,0x1
    6630:	84 41 00 78 	l.lwz r2,120(r1)
    6634:	9c e7 00 01 	l.addi r7,r7,1
    6638:	9c 42 00 01 	l.addi r2,r2,1
    663c:	9c 60 00 01 	l.addi r3,r0,1
    6640:	d4 0c c0 00 	l.sw 0(r12),r24
    6644:	d4 0c 18 04 	l.sw 4(r12),r3
    6648:	d4 01 38 7c 	l.sw 124(r1),r7
    664c:	bd 42 00 07 	l.sfgtsi r2,7
    6650:	10 00 01 4e 	l.bf 6b88 <_vfprintf_r+0x15e0>
    6654:	d4 01 10 78 	l.sw 120(r1),r2
    6658:	9d 8c 00 08 	l.addi r12,r12,8
    665c:	84 61 00 50 	l.lwz r3,80(r1)
    6660:	9c 42 00 01 	l.addi r2,r2,1
    6664:	e3 c3 38 00 	l.add r30,r3,r7
    6668:	84 81 00 44 	l.lwz r4,68(r1)
    666c:	d4 0c 18 04 	l.sw 4(r12),r3
    6670:	d4 0c 20 00 	l.sw 0(r12),r4
    6674:	d4 01 f0 7c 	l.sw 124(r1),r30
    6678:	bd 42 00 07 	l.sfgtsi r2,7
    667c:	10 00 01 57 	l.bf 6bd8 <_vfprintf_r+0x1630>
    6680:	d4 01 10 78 	l.sw 120(r1),r2
    6684:	9e 8c 00 08 	l.addi r20,r12,8
    6688:	84 81 00 48 	l.lwz r4,72(r1)
    668c:	84 61 00 4c 	l.lwz r3,76(r1)
    6690:	18 e0 00 01 	l.movhi r7,0x1
    6694:	a9 84 00 00 	l.ori r12,r4,0x0
    6698:	a8 e7 2a d4 	l.ori r7,r7,0x2ad4
    669c:	a9 a3 00 00 	l.ori r13,r3,0x0
    66a0:	84 a7 00 00 	l.lwz r5,0(r7)
    66a4:	84 c7 00 04 	l.lwz r6,4(r7)
    66a8:	e0 6c 00 04 	l.or r3,r12,r0
    66ac:	e0 8d 00 04 	l.or r4,r13,r0
    66b0:	04 00 29 92 	l.jal 10cf8 <__eqdf2>
    66b4:	15 00 00 00 	l.nop 0x0
    66b8:	bc 2b 00 00 	l.sfnei r11,0
    66bc:	0c 00 00 a2 	l.bnf 6944 <_vfprintf_r+0x139c>
    66c0:	84 e1 00 3c 	l.lwz r7,60(r1)
    66c4:	85 01 00 3c 	l.lwz r8,60(r1)
    66c8:	9c 42 00 01 	l.addi r2,r2,1
    66cc:	9c 68 ff ff 	l.addi r3,r8,-1
    66d0:	9f 18 00 01 	l.addi r24,r24,1
    66d4:	e3 de 18 00 	l.add r30,r30,r3
    66d8:	d4 14 c0 00 	l.sw 0(r20),r24
    66dc:	d4 14 18 04 	l.sw 4(r20),r3
    66e0:	d4 01 f0 7c 	l.sw 124(r1),r30
    66e4:	bd 42 00 07 	l.sfgtsi r2,7
    66e8:	10 00 00 1b 	l.bf 6754 <_vfprintf_r+0x11ac>
    66ec:	d4 01 10 78 	l.sw 120(r1),r2
    66f0:	9e 94 00 08 	l.addi r20,r20,8
    66f4:	85 01 00 54 	l.lwz r8,84(r1)
    66f8:	9c 42 00 01 	l.addi r2,r2,1
    66fc:	e0 e8 f0 00 	l.add r7,r8,r30
    6700:	9d 61 00 64 	l.addi r11,r1,100
    6704:	d4 14 40 04 	l.sw 4(r20),r8
    6708:	d4 14 58 00 	l.sw 0(r20),r11
    670c:	d4 01 38 7c 	l.sw 124(r1),r7
    6710:	bd 42 00 07 	l.sfgtsi r2,7
    6714:	13 ff ff 35 	l.bf 63e8 <_vfprintf_r+0xe40>
    6718:	d4 01 10 78 	l.sw 120(r1),r2
    671c:	03 ff fe e7 	l.j 62b8 <_vfprintf_r+0xd10>
    6720:	9d 94 00 08 	l.addi r12,r20,8
    6724:	bc 02 00 00 	l.sfeqi r2,0
    6728:	0f ff ff c3 	l.bnf 6634 <_vfprintf_r+0x108c>
    672c:	84 41 00 78 	l.lwz r2,120(r1)
    6730:	9f c7 00 01 	l.addi r30,r7,1
    6734:	9c 42 00 01 	l.addi r2,r2,1
    6738:	9c 60 00 01 	l.addi r3,r0,1
    673c:	d4 0c c0 00 	l.sw 0(r12),r24
    6740:	d4 0c 18 04 	l.sw 4(r12),r3
    6744:	d4 01 f0 7c 	l.sw 124(r1),r30
    6748:	bd 42 00 07 	l.sfgtsi r2,7
    674c:	0c 00 02 8f 	l.bnf 7188 <_vfprintf_r+0x1be0>
    6750:	d4 01 10 78 	l.sw 120(r1),r2
    6754:	9c a1 00 74 	l.addi r5,r1,116
    6758:	a8 9a 00 00 	l.ori r4,r26,0x0
    675c:	07 ff f6 2e 	l.jal 4014 <__sprint_r>
    6760:	a8 76 00 00 	l.ori r3,r22,0x0
    6764:	bc 2b 00 00 	l.sfnei r11,0
    6768:	13 ff fc 44 	l.bf 5878 <_vfprintf_r+0x2d0>
    676c:	87 c1 00 7c 	l.lwz r30,124(r1)
    6770:	84 41 00 78 	l.lwz r2,120(r1)
    6774:	03 ff ff e0 	l.j 66f4 <_vfprintf_r+0x114c>
    6778:	9e 81 00 a8 	l.addi r20,r1,168
    677c:	9c a1 00 74 	l.addi r5,r1,116
    6780:	a8 9a 00 00 	l.ori r4,r26,0x0
    6784:	07 ff f6 24 	l.jal 4014 <__sprint_r>
    6788:	a8 76 00 00 	l.ori r3,r22,0x0
    678c:	bc 2b 00 00 	l.sfnei r11,0
    6790:	0f ff ff 0a 	l.bnf 63b8 <_vfprintf_r+0xe10>
    6794:	15 00 00 00 	l.nop 0x0
    6798:	03 ff fc 39 	l.j 587c <_vfprintf_r+0x2d4>
    679c:	94 5a 00 0c 	l.lhz r2,12(r26)
    67a0:	9c a1 00 74 	l.addi r5,r1,116
    67a4:	a8 9a 00 00 	l.ori r4,r26,0x0
    67a8:	07 ff f6 1b 	l.jal 4014 <__sprint_r>
    67ac:	a8 76 00 00 	l.ori r3,r22,0x0
    67b0:	bc 2b 00 00 	l.sfnei r11,0
    67b4:	13 ff fc 31 	l.bf 5878 <_vfprintf_r+0x2d0>
    67b8:	84 e1 00 7c 	l.lwz r7,124(r1)
    67bc:	03 ff fe b0 	l.j 627c <_vfprintf_r+0xcd4>
    67c0:	9d 81 00 a8 	l.addi r12,r1,168
    67c4:	9c a1 00 74 	l.addi r5,r1,116
    67c8:	a8 9a 00 00 	l.ori r4,r26,0x0
    67cc:	07 ff f6 12 	l.jal 4014 <__sprint_r>
    67d0:	a8 76 00 00 	l.ori r3,r22,0x0
    67d4:	bc 2b 00 00 	l.sfnei r11,0
    67d8:	13 ff fc 28 	l.bf 5878 <_vfprintf_r+0x2d0>
    67dc:	84 e1 00 7c 	l.lwz r7,124(r1)
    67e0:	03 ff fe 67 	l.j 617c <_vfprintf_r+0xbd4>
    67e4:	9d 81 00 a8 	l.addi r12,r1,168
    67e8:	9c a1 00 74 	l.addi r5,r1,116
    67ec:	a8 9a 00 00 	l.ori r4,r26,0x0
    67f0:	07 ff f6 09 	l.jal 4014 <__sprint_r>
    67f4:	a8 76 00 00 	l.ori r3,r22,0x0
    67f8:	bc 2b 00 00 	l.sfnei r11,0
    67fc:	13 ff fc 1f 	l.bf 5878 <_vfprintf_r+0x2d0>
    6800:	84 e1 00 7c 	l.lwz r7,124(r1)
    6804:	03 ff fe 6e 	l.j 61bc <_vfprintf_r+0xc14>
    6808:	9d 81 00 a8 	l.addi r12,r1,168
    680c:	86 81 00 5c 	l.lwz r20,92(r1)
    6810:	bd 54 00 00 	l.sfgtsi r20,0
    6814:	0c 00 01 fd 	l.bnf 7008 <_vfprintf_r+0x1a60>
    6818:	84 41 00 40 	l.lwz r2,64(r1)
    681c:	85 01 00 3c 	l.lwz r8,60(r1)
    6820:	e5 a2 40 00 	l.sfles r2,r8
    6824:	10 00 00 03 	l.bf 6830 <_vfprintf_r+0x1288>
    6828:	aa 82 00 00 	l.ori r20,r2,0x0
    682c:	aa 88 00 00 	l.ori r20,r8,0x0
    6830:	bd b4 00 00 	l.sflesi r20,0
    6834:	10 00 00 0b 	l.bf 6860 <_vfprintf_r+0x12b8>
    6838:	84 41 00 78 	l.lwz r2,120(r1)
    683c:	e0 e7 a0 00 	l.add r7,r7,r20
    6840:	9c 42 00 01 	l.addi r2,r2,1
    6844:	d4 0c c0 00 	l.sw 0(r12),r24
    6848:	d4 0c a0 04 	l.sw 4(r12),r20
    684c:	d4 01 38 7c 	l.sw 124(r1),r7
    6850:	bd 42 00 07 	l.sfgtsi r2,7
    6854:	10 00 02 82 	l.bf 725c <_vfprintf_r+0x1cb4>
    6858:	d4 01 10 78 	l.sw 120(r1),r2
    685c:	9d 8c 00 08 	l.addi r12,r12,8
    6860:	bd 74 00 00 	l.sfgesi r20,0
    6864:	0c 00 02 87 	l.bnf 7280 <_vfprintf_r+0x1cd8>
    6868:	15 00 00 00 	l.nop 0x0
    686c:	84 41 00 40 	l.lwz r2,64(r1)
    6870:	e2 82 a0 02 	l.sub r20,r2,r20
    6874:	bd b4 00 00 	l.sflesi r20,0
    6878:	10 00 00 74 	l.bf 6a48 <_vfprintf_r+0x14a0>
    687c:	1b 80 00 01 	l.movhi r28,0x1
    6880:	bd 54 00 10 	l.sfgtsi r20,16
    6884:	84 41 00 78 	l.lwz r2,120(r1)
    6888:	0c 00 01 cd 	l.bnf 6fbc <_vfprintf_r+0x1a14>
    688c:	ab 9c 2c 40 	l.ori r28,r28,0x2c40
    6890:	00 00 00 07 	l.j 68ac <_vfprintf_r+0x1304>
    6894:	9f c0 00 10 	l.addi r30,r0,16
    6898:	9d 8c 00 08 	l.addi r12,r12,8
    689c:	9e 94 ff f0 	l.addi r20,r20,-16
    68a0:	bd 54 00 10 	l.sfgtsi r20,16
    68a4:	0c 00 01 c6 	l.bnf 6fbc <_vfprintf_r+0x1a14>
    68a8:	15 00 00 00 	l.nop 0x0
    68ac:	9c 42 00 01 	l.addi r2,r2,1
    68b0:	9c e7 00 10 	l.addi r7,r7,16
    68b4:	d4 0c e0 00 	l.sw 0(r12),r28
    68b8:	d4 0c f0 04 	l.sw 4(r12),r30
    68bc:	d4 01 38 7c 	l.sw 124(r1),r7
    68c0:	bd 42 00 07 	l.sfgtsi r2,7
    68c4:	0f ff ff f5 	l.bnf 6898 <_vfprintf_r+0x12f0>
    68c8:	d4 01 10 78 	l.sw 120(r1),r2
    68cc:	9c a1 00 74 	l.addi r5,r1,116
    68d0:	a8 9a 00 00 	l.ori r4,r26,0x0
    68d4:	07 ff f5 d0 	l.jal 4014 <__sprint_r>
    68d8:	a8 76 00 00 	l.ori r3,r22,0x0
    68dc:	bc 2b 00 00 	l.sfnei r11,0
    68e0:	13 ff fb e6 	l.bf 5878 <_vfprintf_r+0x2d0>
    68e4:	84 e1 00 7c 	l.lwz r7,124(r1)
    68e8:	84 41 00 78 	l.lwz r2,120(r1)
    68ec:	03 ff ff ec 	l.j 689c <_vfprintf_r+0x12f4>
    68f0:	9d 81 00 a8 	l.addi r12,r1,168
    68f4:	84 e1 00 10 	l.lwz r7,16(r1)
    68f8:	9d 00 00 30 	l.addi r8,r0,48
    68fc:	e0 c6 38 02 	l.sub r6,r6,r7
    6900:	d8 01 40 a7 	l.sb 167(r1),r8
    6904:	d4 01 30 28 	l.sw 40(r1),r6
    6908:	9c a0 00 00 	l.addi r5,r0,0
    690c:	03 ff fc b7 	l.j 5be8 <_vfprintf_r+0x640>
    6910:	9f 01 00 a7 	l.addi r24,r1,167
    6914:	03 ff fc ff 	l.j 5d10 <_vfprintf_r+0x768>
    6918:	90 a1 00 59 	l.lbs r5,89(r1)
    691c:	9c a1 00 74 	l.addi r5,r1,116
    6920:	a8 9a 00 00 	l.ori r4,r26,0x0
    6924:	07 ff f5 bc 	l.jal 4014 <__sprint_r>
    6928:	a8 76 00 00 	l.ori r3,r22,0x0
    692c:	bc 2b 00 00 	l.sfnei r11,0
    6930:	13 ff fb d2 	l.bf 5878 <_vfprintf_r+0x2d0>
    6934:	90 a1 00 59 	l.lbs r5,89(r1)
    6938:	84 e1 00 7c 	l.lwz r7,124(r1)
    693c:	03 ff fe 01 	l.j 6140 <_vfprintf_r+0xb98>
    6940:	9d 81 00 a8 	l.addi r12,r1,168
    6944:	9f 07 ff ff 	l.addi r24,r7,-1
    6948:	bd b8 00 00 	l.sflesi r24,0
    694c:	13 ff ff 6a 	l.bf 66f4 <_vfprintf_r+0x114c>
    6950:	1b 80 00 01 	l.movhi r28,0x1
    6954:	bd b8 00 10 	l.sflesi r24,16
    6958:	10 00 00 96 	l.bf 6bb0 <_vfprintf_r+0x1608>
    695c:	ab 9c 2c 40 	l.ori r28,r28,0x2c40
    6960:	00 00 00 07 	l.j 697c <_vfprintf_r+0x13d4>
    6964:	9c c0 00 10 	l.addi r6,r0,16
    6968:	9e 94 00 08 	l.addi r20,r20,8
    696c:	9f 18 ff f0 	l.addi r24,r24,-16
    6970:	bd 58 00 10 	l.sfgtsi r24,16
    6974:	0c 00 00 8f 	l.bnf 6bb0 <_vfprintf_r+0x1608>
    6978:	15 00 00 00 	l.nop 0x0
    697c:	9c 42 00 01 	l.addi r2,r2,1
    6980:	9f de 00 10 	l.addi r30,r30,16
    6984:	d4 14 e0 00 	l.sw 0(r20),r28
    6988:	d4 14 30 04 	l.sw 4(r20),r6
    698c:	d4 01 f0 7c 	l.sw 124(r1),r30
    6990:	bd 42 00 07 	l.sfgtsi r2,7
    6994:	0f ff ff f5 	l.bnf 6968 <_vfprintf_r+0x13c0>
    6998:	d4 01 10 78 	l.sw 120(r1),r2
    699c:	9c a1 00 74 	l.addi r5,r1,116
    69a0:	a8 9a 00 00 	l.ori r4,r26,0x0
    69a4:	a8 76 00 00 	l.ori r3,r22,0x0
    69a8:	07 ff f5 9b 	l.jal 4014 <__sprint_r>
    69ac:	d4 01 30 0c 	l.sw 12(r1),r6
    69b0:	bc 2b 00 00 	l.sfnei r11,0
    69b4:	13 ff fb b1 	l.bf 5878 <_vfprintf_r+0x2d0>
    69b8:	84 c1 00 0c 	l.lwz r6,12(r1)
    69bc:	87 c1 00 7c 	l.lwz r30,124(r1)
    69c0:	84 41 00 78 	l.lwz r2,120(r1)
    69c4:	03 ff ff ea 	l.j 696c <_vfprintf_r+0x13c4>
    69c8:	9e 81 00 a8 	l.addi r20,r1,168
    69cc:	13 ff fc f9 	l.bf 5db0 <_vfprintf_r+0x808>
    69d0:	d8 01 20 59 	l.sb 89(r1),r4
    69d4:	e0 80 10 02 	l.sub r4,r0,r2
    69d8:	9c e0 ff 7f 	l.addi r7,r0,-129
    69dc:	e0 84 10 04 	l.or r4,r4,r2
    69e0:	bd 84 00 00 	l.sfltsi r4,0
    69e4:	13 ff fc f3 	l.bf 5db0 <_vfprintf_r+0x808>
    69e8:	e1 ce 38 03 	l.and r14,r14,r7
    69ec:	e0 a0 18 02 	l.sub r5,r0,r3
    69f0:	e0 a5 18 04 	l.or r5,r5,r3
    69f4:	b8 a5 00 5f 	l.srli r5,r5,0x1f
    69f8:	bc 25 00 00 	l.sfnei r5,0
    69fc:	0f ff fc 78 	l.bnf 5bdc <_vfprintf_r+0x634>
    6a00:	9f 01 00 a8 	l.addi r24,r1,168
    6a04:	03 ff fc ed 	l.j 5db8 <_vfprintf_r+0x810>
    6a08:	a4 83 00 0f 	l.andi r4,r3,0xf
    6a0c:	bc 03 00 00 	l.sfeqi r3,0
    6a10:	10 00 01 58 	l.bf 6f70 <_vfprintf_r+0x19c8>
    6a14:	84 61 00 2c 	l.lwz r3,44(r1)
    6a18:	9b 83 00 02 	l.lhs r28,2(r3)
    6a1c:	9c 63 00 04 	l.addi r3,r3,4
    6a20:	03 ff fd 13 	l.j 5e6c <_vfprintf_r+0x8c4>
    6a24:	d4 01 18 2c 	l.sw 44(r1),r3
    6a28:	9c a1 00 74 	l.addi r5,r1,116
    6a2c:	a8 9a 00 00 	l.ori r4,r26,0x0
    6a30:	07 ff f5 79 	l.jal 4014 <__sprint_r>
    6a34:	a8 76 00 00 	l.ori r3,r22,0x0
    6a38:	bc 2b 00 00 	l.sfnei r11,0
    6a3c:	13 ff fb 8f 	l.bf 5878 <_vfprintf_r+0x2d0>
    6a40:	84 e1 00 7c 	l.lwz r7,124(r1)
    6a44:	9d 81 00 a8 	l.addi r12,r1,168
    6a48:	85 01 00 40 	l.lwz r8,64(r1)
    6a4c:	84 41 00 5c 	l.lwz r2,92(r1)
    6a50:	e3 98 40 00 	l.add r28,r24,r8
    6a54:	85 01 00 3c 	l.lwz r8,60(r1)
    6a58:	e5 48 10 00 	l.sfgts r8,r2
    6a5c:	10 00 00 3f 	l.bf 6b58 <_vfprintf_r+0x15b0>
    6a60:	85 61 00 50 	l.lwz r11,80(r1)
    6a64:	a4 6e 00 01 	l.andi r3,r14,0x1
    6a68:	bc 03 00 00 	l.sfeqi r3,0
    6a6c:	0c 00 00 3c 	l.bnf 6b5c <_vfprintf_r+0x15b4>
    6a70:	84 61 00 78 	l.lwz r3,120(r1)
    6a74:	85 01 00 3c 	l.lwz r8,60(r1)
    6a78:	e2 98 40 00 	l.add r20,r24,r8
    6a7c:	e0 48 10 02 	l.sub r2,r8,r2
    6a80:	e2 94 e0 02 	l.sub r20,r20,r28
    6a84:	e5 b4 10 00 	l.sfles r20,r2
    6a88:	10 00 00 04 	l.bf 6a98 <_vfprintf_r+0x14f0>
    6a8c:	bd b4 00 00 	l.sflesi r20,0
    6a90:	aa 82 00 00 	l.ori r20,r2,0x0
    6a94:	bd b4 00 00 	l.sflesi r20,0
    6a98:	10 00 00 0d 	l.bf 6acc <_vfprintf_r+0x1524>
    6a9c:	bd 74 00 00 	l.sfgesi r20,0
    6aa0:	84 61 00 78 	l.lwz r3,120(r1)
    6aa4:	e0 e7 a0 00 	l.add r7,r7,r20
    6aa8:	9c 63 00 01 	l.addi r3,r3,1
    6aac:	d4 0c e0 00 	l.sw 0(r12),r28
    6ab0:	d4 0c a0 04 	l.sw 4(r12),r20
    6ab4:	d4 01 38 7c 	l.sw 124(r1),r7
    6ab8:	bd 43 00 07 	l.sfgtsi r3,7
    6abc:	10 00 01 f3 	l.bf 7288 <_vfprintf_r+0x1ce0>
    6ac0:	d4 01 18 78 	l.sw 120(r1),r3
    6ac4:	9d 8c 00 08 	l.addi r12,r12,8
    6ac8:	bd 74 00 00 	l.sfgesi r20,0
    6acc:	0c 00 02 59 	l.bnf 7430 <_vfprintf_r+0x1e88>
    6ad0:	15 00 00 00 	l.nop 0x0
    6ad4:	e2 82 a0 02 	l.sub r20,r2,r20
    6ad8:	bd b4 00 00 	l.sflesi r20,0
    6adc:	13 ff fd f7 	l.bf 62b8 <_vfprintf_r+0xd10>
    6ae0:	1b 80 00 01 	l.movhi r28,0x1
    6ae4:	bd 54 00 10 	l.sfgtsi r20,16
    6ae8:	84 41 00 78 	l.lwz r2,120(r1)
    6aec:	0f ff fe 37 	l.bnf 63c8 <_vfprintf_r+0xe20>
    6af0:	ab 9c 2c 40 	l.ori r28,r28,0x2c40
    6af4:	00 00 00 07 	l.j 6b10 <_vfprintf_r+0x1568>
    6af8:	9f 00 00 10 	l.addi r24,r0,16
    6afc:	9d 8c 00 08 	l.addi r12,r12,8
    6b00:	9e 94 ff f0 	l.addi r20,r20,-16
    6b04:	bd 54 00 10 	l.sfgtsi r20,16
    6b08:	0f ff fe 30 	l.bnf 63c8 <_vfprintf_r+0xe20>
    6b0c:	15 00 00 00 	l.nop 0x0
    6b10:	9c 42 00 01 	l.addi r2,r2,1
    6b14:	9c e7 00 10 	l.addi r7,r7,16
    6b18:	d4 0c e0 00 	l.sw 0(r12),r28
    6b1c:	d4 0c c0 04 	l.sw 4(r12),r24
    6b20:	d4 01 38 7c 	l.sw 124(r1),r7
    6b24:	bd 42 00 07 	l.sfgtsi r2,7
    6b28:	0f ff ff f5 	l.bnf 6afc <_vfprintf_r+0x1554>
    6b2c:	d4 01 10 78 	l.sw 120(r1),r2
    6b30:	9c a1 00 74 	l.addi r5,r1,116
    6b34:	a8 9a 00 00 	l.ori r4,r26,0x0
    6b38:	07 ff f5 37 	l.jal 4014 <__sprint_r>
    6b3c:	a8 76 00 00 	l.ori r3,r22,0x0
    6b40:	bc 2b 00 00 	l.sfnei r11,0
    6b44:	13 ff fb 4d 	l.bf 5878 <_vfprintf_r+0x2d0>
    6b48:	84 e1 00 7c 	l.lwz r7,124(r1)
    6b4c:	84 41 00 78 	l.lwz r2,120(r1)
    6b50:	03 ff ff ec 	l.j 6b00 <_vfprintf_r+0x1558>
    6b54:	9d 81 00 a8 	l.addi r12,r1,168
    6b58:	84 61 00 78 	l.lwz r3,120(r1)
    6b5c:	e0 e7 58 00 	l.add r7,r7,r11
    6b60:	9c 63 00 01 	l.addi r3,r3,1
    6b64:	84 81 00 44 	l.lwz r4,68(r1)
    6b68:	d4 0c 58 04 	l.sw 4(r12),r11
    6b6c:	d4 0c 20 00 	l.sw 0(r12),r4
    6b70:	d4 01 38 7c 	l.sw 124(r1),r7
    6b74:	bd 43 00 07 	l.sfgtsi r3,7
    6b78:	10 00 02 16 	l.bf 73d0 <_vfprintf_r+0x1e28>
    6b7c:	d4 01 18 78 	l.sw 120(r1),r3
    6b80:	03 ff ff bd 	l.j 6a74 <_vfprintf_r+0x14cc>
    6b84:	9d 8c 00 08 	l.addi r12,r12,8
    6b88:	9c a1 00 74 	l.addi r5,r1,116
    6b8c:	a8 9a 00 00 	l.ori r4,r26,0x0
    6b90:	07 ff f5 21 	l.jal 4014 <__sprint_r>
    6b94:	a8 76 00 00 	l.ori r3,r22,0x0
    6b98:	bc 2b 00 00 	l.sfnei r11,0
    6b9c:	13 ff fb 37 	l.bf 5878 <_vfprintf_r+0x2d0>
    6ba0:	84 e1 00 7c 	l.lwz r7,124(r1)
    6ba4:	84 41 00 78 	l.lwz r2,120(r1)
    6ba8:	03 ff fe ad 	l.j 665c <_vfprintf_r+0x10b4>
    6bac:	9d 81 00 a8 	l.addi r12,r1,168
    6bb0:	9c 42 00 01 	l.addi r2,r2,1
    6bb4:	e3 de c0 00 	l.add r30,r30,r24
    6bb8:	d4 14 e0 00 	l.sw 0(r20),r28
    6bbc:	d4 14 c0 04 	l.sw 4(r20),r24
    6bc0:	d4 01 f0 7c 	l.sw 124(r1),r30
    6bc4:	bd 42 00 07 	l.sfgtsi r2,7
    6bc8:	0f ff fe ca 	l.bnf 66f0 <_vfprintf_r+0x1148>
    6bcc:	d4 01 10 78 	l.sw 120(r1),r2
    6bd0:	03 ff fe e2 	l.j 6758 <_vfprintf_r+0x11b0>
    6bd4:	9c a1 00 74 	l.addi r5,r1,116
    6bd8:	9c a1 00 74 	l.addi r5,r1,116
    6bdc:	a8 9a 00 00 	l.ori r4,r26,0x0
    6be0:	07 ff f5 0d 	l.jal 4014 <__sprint_r>
    6be4:	a8 76 00 00 	l.ori r3,r22,0x0
    6be8:	bc 2b 00 00 	l.sfnei r11,0
    6bec:	13 ff fb 23 	l.bf 5878 <_vfprintf_r+0x2d0>
    6bf0:	87 c1 00 7c 	l.lwz r30,124(r1)
    6bf4:	84 41 00 78 	l.lwz r2,120(r1)
    6bf8:	03 ff fe a4 	l.j 6688 <_vfprintf_r+0x10e0>
    6bfc:	9e 81 00 a8 	l.addi r20,r1,168
    6c00:	d4 01 10 20 	l.sw 32(r1),r2
    6c04:	9f 01 00 a8 	l.addi r24,r1,168
    6c08:	a8 5c 00 00 	l.ori r2,r28,0x0
    6c0c:	ab 85 00 00 	l.ori r28,r5,0x0
    6c10:	a8 62 00 00 	l.ori r3,r2,0x0
    6c14:	9c 80 00 0a 	l.addi r4,r0,10
    6c18:	04 00 22 55 	l.jal f56c <__umodsi3>
    6c1c:	9f 18 ff ff 	l.addi r24,r24,-1
    6c20:	9d 6b 00 30 	l.addi r11,r11,48
    6c24:	a8 62 00 00 	l.ori r3,r2,0x0
    6c28:	9c 80 00 0a 	l.addi r4,r0,10
    6c2c:	04 00 21 f8 	l.jal f40c <__udivsi3>
    6c30:	d8 18 58 00 	l.sb 0(r24),r11
    6c34:	bc 2b 00 00 	l.sfnei r11,0
    6c38:	13 ff ff f6 	l.bf 6c10 <_vfprintf_r+0x1668>
    6c3c:	a8 4b 00 00 	l.ori r2,r11,0x0
    6c40:	84 c1 00 1c 	l.lwz r6,28(r1)
    6c44:	84 41 00 20 	l.lwz r2,32(r1)
    6c48:	e0 c6 c0 02 	l.sub r6,r6,r24
    6c4c:	a9 9e 00 00 	l.ori r12,r30,0x0
    6c50:	a8 bc 00 00 	l.ori r5,r28,0x0
    6c54:	03 ff fb e5 	l.j 5be8 <_vfprintf_r+0x640>
    6c58:	d4 01 30 28 	l.sw 40(r1),r6
    6c5c:	9c a1 00 74 	l.addi r5,r1,116
    6c60:	a8 9a 00 00 	l.ori r4,r26,0x0
    6c64:	07 ff f4 ec 	l.jal 4014 <__sprint_r>
    6c68:	a8 76 00 00 	l.ori r3,r22,0x0
    6c6c:	bc 2b 00 00 	l.sfnei r11,0
    6c70:	13 ff fb 02 	l.bf 5878 <_vfprintf_r+0x2d0>
    6c74:	84 e1 00 7c 	l.lwz r7,124(r1)
    6c78:	03 ff fd 55 	l.j 61cc <_vfprintf_r+0xc24>
    6c7c:	9d 81 00 a8 	l.addi r12,r1,168
    6c80:	9c c0 00 2d 	l.addi r6,r0,45
    6c84:	d8 01 30 59 	l.sb 89(r1),r6
    6c88:	10 00 01 dc 	l.bf 73f8 <_vfprintf_r+0x1e50>
    6c8c:	e3 80 e0 02 	l.sub r28,r0,r28
    6c90:	9c e0 ff 7f 	l.addi r7,r0,-129
    6c94:	9c a0 00 2d 	l.addi r5,r0,45
    6c98:	03 ff fc 1e 	l.j 5d10 <_vfprintf_r+0x768>
    6c9c:	e1 ce 38 03 	l.and r14,r14,r7
    6ca0:	13 ff fc 44 	l.bf 5db0 <_vfprintf_r+0x808>
    6ca4:	d8 01 18 59 	l.sb 89(r1),r3
    6ca8:	9c a0 ff 7f 	l.addi r5,r0,-129
    6cac:	bc 22 00 00 	l.sfnei r2,0
    6cb0:	13 ff fc 40 	l.bf 5db0 <_vfprintf_r+0x808>
    6cb4:	e1 ce 28 03 	l.and r14,r14,r5
    6cb8:	03 ff fb c9 	l.j 5bdc <_vfprintf_r+0x634>
    6cbc:	a8 a2 00 00 	l.ori r5,r2,0x0
    6cc0:	84 61 00 4c 	l.lwz r3,76(r1)
    6cc4:	84 c1 00 48 	l.lwz r6,72(r1)
    6cc8:	a8 a3 00 00 	l.ori r5,r3,0x0
    6ccc:	a8 86 00 00 	l.ori r4,r6,0x0
    6cd0:	e0 64 00 04 	l.or r3,r4,r0
    6cd4:	e0 85 00 04 	l.or r4,r5,r0
    6cd8:	04 00 1a 11 	l.jal d51c <__fpclassifyd>
    6cdc:	d4 01 60 08 	l.sw 8(r1),r12
    6ce0:	bc 2b 00 00 	l.sfnei r11,0
    6ce4:	0c 00 01 1a 	l.bnf 714c <_vfprintf_r+0x1ba4>
    6ce8:	85 81 00 08 	l.lwz r12,8(r1)
    6cec:	bc 22 ff ff 	l.sfnei r2,-1
    6cf0:	0c 00 01 7c 	l.bnf 72e0 <_vfprintf_r+0x1d38>
    6cf4:	9c 60 ff df 	l.addi r3,r0,-33
    6cf8:	e3 94 18 03 	l.and r28,r20,r3
    6cfc:	ac 7c 00 47 	l.xori r3,r28,71
    6d00:	e0 80 18 02 	l.sub r4,r0,r3
    6d04:	e0 64 18 04 	l.or r3,r4,r3
    6d08:	bd 83 00 00 	l.sfltsi r3,0
    6d0c:	10 00 01 78 	l.bf 72ec <_vfprintf_r+0x1d44>
    6d10:	e0 60 10 02 	l.sub r3,r0,r2
    6d14:	e0 63 10 04 	l.or r3,r3,r2
    6d18:	bd 63 00 00 	l.sfgesi r3,0
    6d1c:	0c 00 01 75 	l.bnf 72f0 <_vfprintf_r+0x1d48>
    6d20:	84 81 00 48 	l.lwz r4,72(r1)
    6d24:	84 41 00 48 	l.lwz r2,72(r1)
    6d28:	bd 82 00 00 	l.sfltsi r2,0
    6d2c:	a8 4e 01 00 	l.ori r2,r14,0x100
    6d30:	10 00 02 1c 	l.bf 75a0 <_vfprintf_r+0x1ff8>
    6d34:	d4 01 10 38 	l.sw 56(r1),r2
    6d38:	9c 60 00 00 	l.addi r3,r0,0
    6d3c:	87 c1 00 48 	l.lwz r30,72(r1)
    6d40:	9f 80 00 47 	l.addi r28,r0,71
    6d44:	9c 40 00 01 	l.addi r2,r0,1
    6d48:	d4 01 18 34 	l.sw 52(r1),r3
    6d4c:	84 61 00 4c 	l.lwz r3,76(r1)
    6d50:	9c c1 00 6c 	l.addi r6,r1,108
    6d54:	a8 a3 00 00 	l.ori r5,r3,0x0
    6d58:	9c 61 00 60 	l.addi r3,r1,96
    6d5c:	d4 01 30 04 	l.sw 4(r1),r6
    6d60:	d4 01 18 00 	l.sw 0(r1),r3
    6d64:	a8 9e 00 00 	l.ori r4,r30,0x0
    6d68:	9d 01 00 5c 	l.addi r8,r1,92
    6d6c:	a8 e2 00 00 	l.ori r7,r2,0x0
    6d70:	9c c0 00 02 	l.addi r6,r0,2
    6d74:	a8 76 00 00 	l.ori r3,r22,0x0
    6d78:	04 00 04 eb 	l.jal 8124 <_dtoa_r>
    6d7c:	d4 01 60 08 	l.sw 8(r1),r12
    6d80:	bc 3c 00 47 	l.sfnei r28,71
    6d84:	ab 0b 00 00 	l.ori r24,r11,0x0
    6d88:	10 00 02 ba 	l.bf 7870 <_vfprintf_r+0x22c8>
    6d8c:	85 81 00 08 	l.lwz r12,8(r1)
    6d90:	a4 6e 00 01 	l.andi r3,r14,0x1
    6d94:	bc 23 00 00 	l.sfnei r3,0
    6d98:	0c 00 02 23 	l.bnf 7624 <_vfprintf_r+0x207c>
    6d9c:	e0 eb 10 00 	l.add r7,r11,r2
    6da0:	85 01 00 4c 	l.lwz r8,76(r1)
    6da4:	19 60 00 01 	l.movhi r11,0x1
    6da8:	a8 7e 00 00 	l.ori r3,r30,0x0
    6dac:	a9 6b 2a d4 	l.ori r11,r11,0x2ad4
    6db0:	a8 88 00 00 	l.ori r4,r8,0x0
    6db4:	d4 01 38 0c 	l.sw 12(r1),r7
    6db8:	84 ab 00 00 	l.lwz r5,0(r11)
    6dbc:	84 cb 00 04 	l.lwz r6,4(r11)
    6dc0:	04 00 27 ce 	l.jal 10cf8 <__eqdf2>
    6dc4:	d4 01 60 08 	l.sw 8(r1),r12
    6dc8:	84 e1 00 0c 	l.lwz r7,12(r1)
    6dcc:	bc 0b 00 00 	l.sfeqi r11,0
    6dd0:	a8 67 00 00 	l.ori r3,r7,0x0
    6dd4:	10 00 00 0d 	l.bf 6e08 <_vfprintf_r+0x1860>
    6dd8:	85 81 00 08 	l.lwz r12,8(r1)
    6ddc:	84 61 00 6c 	l.lwz r3,108(r1)
    6de0:	e4 a7 18 00 	l.sfleu r7,r3
    6de4:	10 00 00 09 	l.bf 6e08 <_vfprintf_r+0x1860>
    6de8:	9c 83 00 01 	l.addi r4,r3,1
    6dec:	d4 01 20 6c 	l.sw 108(r1),r4
    6df0:	9c 80 00 30 	l.addi r4,r0,48
    6df4:	d8 03 20 00 	l.sb 0(r3),r4
    6df8:	84 61 00 6c 	l.lwz r3,108(r1)
    6dfc:	e4 47 18 00 	l.sfgtu r7,r3
    6e00:	13 ff ff fb 	l.bf 6dec <_vfprintf_r+0x1844>
    6e04:	9c 83 00 01 	l.addi r4,r3,1
    6e08:	e0 63 c0 02 	l.sub r3,r3,r24
    6e0c:	bc 3c 00 47 	l.sfnei r28,71
    6e10:	10 00 01 8c 	l.bf 7440 <_vfprintf_r+0x1e98>
    6e14:	d4 01 18 3c 	l.sw 60(r1),r3
    6e18:	84 61 00 5c 	l.lwz r3,92(r1)
    6e1c:	e5 43 10 00 	l.sfgts r3,r2
    6e20:	10 00 00 03 	l.bf 6e2c <_vfprintf_r+0x1884>
    6e24:	9c 80 00 01 	l.addi r4,r0,1
    6e28:	9c 80 00 00 	l.addi r4,r0,0
    6e2c:	a4 44 00 ff 	l.andi r2,r4,0xff
    6e30:	bc 22 00 00 	l.sfnei r2,0
    6e34:	10 00 01 96 	l.bf 748c <_vfprintf_r+0x1ee4>
    6e38:	bd 83 ff fd 	l.sfltsi r3,-3
    6e3c:	10 00 00 03 	l.bf 6e48 <_vfprintf_r+0x18a0>
    6e40:	9c 80 00 01 	l.addi r4,r0,1
    6e44:	a8 82 00 00 	l.ori r4,r2,0x0
    6e48:	a4 84 00 ff 	l.andi r4,r4,0xff
    6e4c:	bc 04 00 00 	l.sfeqi r4,0
    6e50:	0c 00 01 8f 	l.bnf 748c <_vfprintf_r+0x1ee4>
    6e54:	d4 01 18 40 	l.sw 64(r1),r3
    6e58:	84 41 00 3c 	l.lwz r2,60(r1)
    6e5c:	84 e1 00 40 	l.lwz r7,64(r1)
    6e60:	e5 42 38 00 	l.sfgts r2,r7
    6e64:	10 00 01 bd 	l.bf 7558 <_vfprintf_r+0x1fb0>
    6e68:	bd 47 00 00 	l.sfgtsi r7,0
    6e6c:	a5 ce 00 01 	l.andi r14,r14,0x1
    6e70:	bc 2e 00 00 	l.sfnei r14,0
    6e74:	10 00 01 c3 	l.bf 7580 <_vfprintf_r+0x1fd8>
    6e78:	84 41 00 40 	l.lwz r2,64(r1)
    6e7c:	bd 67 00 00 	l.sfgesi r7,0
    6e80:	0c 00 02 6d 	l.bnf 7834 <_vfprintf_r+0x228c>
    6e84:	a8 67 00 00 	l.ori r3,r7,0x0
    6e88:	85 01 00 40 	l.lwz r8,64(r1)
    6e8c:	9e 80 00 67 	l.addi r20,r0,103
    6e90:	d4 01 40 28 	l.sw 40(r1),r8
    6e94:	84 41 00 34 	l.lwz r2,52(r1)
    6e98:	bc 22 00 00 	l.sfnei r2,0
    6e9c:	10 00 01 77 	l.bf 7478 <_vfprintf_r+0x1ed0>
    6ea0:	9c 80 00 2d 	l.addi r4,r0,45
    6ea4:	90 a1 00 59 	l.lbs r5,89(r1)
    6ea8:	d4 01 18 20 	l.sw 32(r1),r3
    6eac:	03 ff fa a9 	l.j 5950 <_vfprintf_r+0x3a8>
    6eb0:	85 c1 00 38 	l.lwz r14,56(r1)
    6eb4:	84 a1 00 2c 	l.lwz r5,44(r1)
    6eb8:	84 c1 00 2c 	l.lwz r6,44(r1)
    6ebc:	84 84 00 00 	l.lwz r4,0(r4)
    6ec0:	84 a5 00 04 	l.lwz r5,4(r5)
    6ec4:	9c c6 00 08 	l.addi r6,r6,8
    6ec8:	d4 01 20 48 	l.sw 72(r1),r4
    6ecc:	d4 01 28 4c 	l.sw 76(r1),r5
    6ed0:	03 ff fc 09 	l.j 5ef4 <_vfprintf_r+0x94c>
    6ed4:	d4 01 30 2c 	l.sw 44(r1),r6
    6ed8:	d8 01 18 59 	l.sb 89(r1),r3
    6edc:	84 61 00 2c 	l.lwz r3,44(r1)
    6ee0:	9c c3 00 04 	l.addi r6,r3,4
    6ee4:	0f ff fc 7e 	l.bnf 60dc <_vfprintf_r+0xb34>
    6ee8:	84 63 00 00 	l.lwz r3,0(r3)
    6eec:	e0 80 18 02 	l.sub r4,r0,r3
    6ef0:	9c a0 ff 7f 	l.addi r5,r0,-129
    6ef4:	e0 84 18 04 	l.or r4,r4,r3
    6ef8:	bd 84 00 00 	l.sfltsi r4,0
    6efc:	13 ff fc 78 	l.bf 60dc <_vfprintf_r+0xb34>
    6f00:	e1 ce 28 03 	l.and r14,r14,r5
    6f04:	e0 80 10 02 	l.sub r4,r0,r2
    6f08:	e0 84 10 04 	l.or r4,r4,r2
    6f0c:	bd 64 00 00 	l.sfgesi r4,0
    6f10:	13 ff fb 59 	l.bf 5c74 <_vfprintf_r+0x6cc>
    6f14:	d4 01 30 2c 	l.sw 44(r1),r6
    6f18:	03 ff fc 72 	l.j 60e0 <_vfprintf_r+0xb38>
    6f1c:	9c a1 00 a8 	l.addi r5,r1,168
    6f20:	18 c0 00 01 	l.movhi r6,0x1
    6f24:	9e 80 00 78 	l.addi r20,r0,120
    6f28:	03 ff fb a2 	l.j 5db0 <_vfprintf_r+0x808>
    6f2c:	a8 c6 29 23 	l.ori r6,r6,0x2923
    6f30:	a5 ce 00 40 	l.andi r14,r14,0x40
    6f34:	bc 0e 00 00 	l.sfeqi r14,0
    6f38:	10 00 00 7f 	l.bf 7134 <_vfprintf_r+0x1b8c>
    6f3c:	84 61 00 30 	l.lwz r3,48(r1)
    6f40:	84 e1 00 2c 	l.lwz r7,44(r1)
    6f44:	85 01 00 30 	l.lwz r8,48(r1)
    6f48:	84 47 00 00 	l.lwz r2,0(r7)
    6f4c:	9c e7 00 04 	l.addi r7,r7,4
    6f50:	dc 02 40 00 	l.sh 0(r2),r8
    6f54:	03 ff f9 d9 	l.j 56b8 <_vfprintf_r+0x110>
    6f58:	d4 01 38 2c 	l.sw 44(r1),r7
    6f5c:	84 e1 00 2c 	l.lwz r7,44(r1)
    6f60:	84 67 00 00 	l.lwz r3,0(r7)
    6f64:	9c e7 00 04 	l.addi r7,r7,4
    6f68:	03 ff fb 81 	l.j 5d6c <_vfprintf_r+0x7c4>
    6f6c:	d4 01 38 2c 	l.sw 44(r1),r7
    6f70:	84 81 00 2c 	l.lwz r4,44(r1)
    6f74:	87 84 00 00 	l.lwz r28,0(r4)
    6f78:	9c 84 00 04 	l.addi r4,r4,4
    6f7c:	03 ff fb bc 	l.j 5e6c <_vfprintf_r+0x8c4>
    6f80:	d4 01 20 2c 	l.sw 44(r1),r4
    6f84:	d8 01 28 59 	l.sb 89(r1),r5
    6f88:	bd 62 00 00 	l.sfgesi r2,0
    6f8c:	9c 8b 00 04 	l.addi r4,r11,4
    6f90:	0c 00 01 2a 	l.bnf 7438 <_vfprintf_r+0x1e90>
    6f94:	87 8b 00 00 	l.lwz r28,0(r11)
    6f98:	e0 60 e0 02 	l.sub r3,r0,r28
    6f9c:	9d 00 ff 7f 	l.addi r8,r0,-129
    6fa0:	e0 63 e0 04 	l.or r3,r3,r28
    6fa4:	d4 01 20 2c 	l.sw 44(r1),r4
    6fa8:	bd 83 00 00 	l.sfltsi r3,0
    6fac:	0f ff fa c0 	l.bnf 5aac <_vfprintf_r+0x504>
    6fb0:	e1 ce 40 03 	l.and r14,r14,r8
    6fb4:	03 ff fb 57 	l.j 5d10 <_vfprintf_r+0x768>
    6fb8:	9c a0 00 00 	l.addi r5,r0,0
    6fbc:	9c 42 00 01 	l.addi r2,r2,1
    6fc0:	e0 e7 a0 00 	l.add r7,r7,r20
    6fc4:	d4 0c e0 00 	l.sw 0(r12),r28
    6fc8:	d4 0c a0 04 	l.sw 4(r12),r20
    6fcc:	d4 01 38 7c 	l.sw 124(r1),r7
    6fd0:	bd 42 00 07 	l.sfgtsi r2,7
    6fd4:	13 ff fe 95 	l.bf 6a28 <_vfprintf_r+0x1480>
    6fd8:	d4 01 10 78 	l.sw 120(r1),r2
    6fdc:	03 ff fe 9b 	l.j 6a48 <_vfprintf_r+0x14a0>
    6fe0:	9d 8c 00 08 	l.addi r12,r12,8
    6fe4:	9c a1 00 74 	l.addi r5,r1,116
    6fe8:	a8 9a 00 00 	l.ori r4,r26,0x0
    6fec:	07 ff f4 0a 	l.jal 4014 <__sprint_r>
    6ff0:	a8 76 00 00 	l.ori r3,r22,0x0
    6ff4:	bc 2b 00 00 	l.sfnei r11,0
    6ff8:	13 ff fa 20 	l.bf 5878 <_vfprintf_r+0x2d0>
    6ffc:	84 e1 00 7c 	l.lwz r7,124(r1)
    7000:	03 ff fd 23 	l.j 648c <_vfprintf_r+0xee4>
    7004:	9d 81 00 a8 	l.addi r12,r1,168
    7008:	18 60 00 01 	l.movhi r3,0x1
    700c:	84 41 00 78 	l.lwz r2,120(r1)
    7010:	a8 63 2a d0 	l.ori r3,r3,0x2ad0
    7014:	9c 42 00 01 	l.addi r2,r2,1
    7018:	9c e7 00 01 	l.addi r7,r7,1
    701c:	d4 0c 18 00 	l.sw 0(r12),r3
    7020:	9c 60 00 01 	l.addi r3,r0,1
    7024:	d4 01 38 7c 	l.sw 124(r1),r7
    7028:	d4 0c 18 04 	l.sw 4(r12),r3
    702c:	bd 42 00 07 	l.sfgtsi r2,7
    7030:	10 00 00 58 	l.bf 7190 <_vfprintf_r+0x1be8>
    7034:	d4 01 10 78 	l.sw 120(r1),r2
    7038:	9d 8c 00 08 	l.addi r12,r12,8
    703c:	85 01 00 3c 	l.lwz r8,60(r1)
    7040:	e0 48 a0 04 	l.or r2,r8,r20
    7044:	bc 22 00 00 	l.sfnei r2,0
    7048:	10 00 00 06 	l.bf 7060 <_vfprintf_r+0x1ab8>
    704c:	84 41 00 50 	l.lwz r2,80(r1)
    7050:	a4 4e 00 01 	l.andi r2,r14,0x1
    7054:	bc 02 00 00 	l.sfeqi r2,0
    7058:	13 ff fc 98 	l.bf 62b8 <_vfprintf_r+0xd10>
    705c:	84 41 00 50 	l.lwz r2,80(r1)
    7060:	84 61 00 44 	l.lwz r3,68(r1)
    7064:	e0 e2 38 00 	l.add r7,r2,r7
    7068:	84 41 00 78 	l.lwz r2,120(r1)
    706c:	84 81 00 50 	l.lwz r4,80(r1)
    7070:	9c 42 00 01 	l.addi r2,r2,1
    7074:	d4 0c 18 00 	l.sw 0(r12),r3
    7078:	d4 0c 20 04 	l.sw 4(r12),r4
    707c:	d4 01 38 7c 	l.sw 124(r1),r7
    7080:	bd 42 00 07 	l.sfgtsi r2,7
    7084:	10 00 01 2a 	l.bf 752c <_vfprintf_r+0x1f84>
    7088:	d4 01 10 78 	l.sw 120(r1),r2
    708c:	9d 8c 00 08 	l.addi r12,r12,8
    7090:	e2 80 a0 02 	l.sub r20,r0,r20
    7094:	bd b4 00 00 	l.sflesi r20,0
    7098:	10 00 00 63 	l.bf 7224 <_vfprintf_r+0x1c7c>
    709c:	1b 80 00 01 	l.movhi r28,0x1
    70a0:	bd b4 00 10 	l.sflesi r20,16
    70a4:	10 00 00 85 	l.bf 72b8 <_vfprintf_r+0x1d10>
    70a8:	ab 9c 2c 40 	l.ori r28,r28,0x2c40
    70ac:	00 00 00 07 	l.j 70c8 <_vfprintf_r+0x1b20>
    70b0:	9f c0 00 10 	l.addi r30,r0,16
    70b4:	9d 8c 00 08 	l.addi r12,r12,8
    70b8:	9e 94 ff f0 	l.addi r20,r20,-16
    70bc:	bd 54 00 10 	l.sfgtsi r20,16
    70c0:	0c 00 00 7e 	l.bnf 72b8 <_vfprintf_r+0x1d10>
    70c4:	15 00 00 00 	l.nop 0x0
    70c8:	9c 42 00 01 	l.addi r2,r2,1
    70cc:	9c e7 00 10 	l.addi r7,r7,16
    70d0:	d4 0c e0 00 	l.sw 0(r12),r28
    70d4:	d4 0c f0 04 	l.sw 4(r12),r30
    70d8:	d4 01 38 7c 	l.sw 124(r1),r7
    70dc:	bd 42 00 07 	l.sfgtsi r2,7
    70e0:	0f ff ff f5 	l.bnf 70b4 <_vfprintf_r+0x1b0c>
    70e4:	d4 01 10 78 	l.sw 120(r1),r2
    70e8:	9c a1 00 74 	l.addi r5,r1,116
    70ec:	a8 9a 00 00 	l.ori r4,r26,0x0
    70f0:	07 ff f3 c9 	l.jal 4014 <__sprint_r>
    70f4:	a8 76 00 00 	l.ori r3,r22,0x0
    70f8:	bc 2b 00 00 	l.sfnei r11,0
    70fc:	13 ff f9 df 	l.bf 5878 <_vfprintf_r+0x2d0>
    7100:	84 e1 00 7c 	l.lwz r7,124(r1)
    7104:	84 41 00 78 	l.lwz r2,120(r1)
    7108:	03 ff ff ec 	l.j 70b8 <_vfprintf_r+0x1b10>
    710c:	9d 81 00 a8 	l.addi r12,r1,168
    7110:	84 e1 00 1c 	l.lwz r7,28(r1)
    7114:	ab 05 00 00 	l.ori r24,r5,0x0
    7118:	e0 e7 28 02 	l.sub r7,r7,r5
    711c:	d4 01 30 2c 	l.sw 44(r1),r6
    7120:	d4 01 38 28 	l.sw 40(r1),r7
    7124:	03 ff fa b1 	l.j 5be8 <_vfprintf_r+0x640>
    7128:	9c a0 00 00 	l.addi r5,r0,0
    712c:	03 ff f9 d9 	l.j 5890 <_vfprintf_r+0x2e8>
    7130:	9d 60 ff ff 	l.addi r11,r0,-1
    7134:	85 61 00 2c 	l.lwz r11,44(r1)
    7138:	84 4b 00 00 	l.lwz r2,0(r11)
    713c:	9d 6b 00 04 	l.addi r11,r11,4
    7140:	d4 02 18 00 	l.sw 0(r2),r3
    7144:	03 ff f9 5d 	l.j 56b8 <_vfprintf_r+0x110>
    7148:	d4 01 58 2c 	l.sw 44(r1),r11
    714c:	1b 00 00 01 	l.movhi r24,0x1
    7150:	bd 54 00 47 	l.sfgtsi r20,71
    7154:	10 00 00 04 	l.bf 7164 <_vfprintf_r+0x1bbc>
    7158:	ab 18 2a cc 	l.ori r24,r24,0x2acc
    715c:	1b 00 00 01 	l.movhi r24,0x1
    7160:	ab 18 2a c8 	l.ori r24,r24,0x2ac8
    7164:	9d 00 00 03 	l.addi r8,r0,3
    7168:	9c 40 00 00 	l.addi r2,r0,0
    716c:	9d 60 ff 7f 	l.addi r11,r0,-129
    7170:	d4 01 40 20 	l.sw 32(r1),r8
    7174:	e1 ce 58 03 	l.and r14,r14,r11
    7178:	90 a1 00 59 	l.lbs r5,89(r1)
    717c:	d4 01 40 28 	l.sw 40(r1),r8
    7180:	03 ff f9 f4 	l.j 5950 <_vfprintf_r+0x3a8>
    7184:	d4 01 10 40 	l.sw 64(r1),r2
    7188:	03 ff fd 5b 	l.j 66f4 <_vfprintf_r+0x114c>
    718c:	9e 8c 00 08 	l.addi r20,r12,8
